# SymbolsHelper-Confirmed: 1.8.0+dfsg1 amd64 arm64 armel armhf hppa i386 m68k mips64el mipsel powerpc ppc64 ppc64el riscv64 s390x sh4 sparc64 x32
libmirwayland.so.0 libmirwayland0 #MINVER#
* Build-Depends-Package: libmirwayland-dev
 MIRWAYLAND_1.2@MIRWAYLAND_1.2 1.7
 _ZN3mir7wayland10Compositor11is_instanceEP11wl_resource@MIRWAYLAND_1.2 1.7
 _ZN3mir7wayland10Compositor4fromEP11wl_resource@MIRWAYLAND_1.2 1.7
 _ZN3mir7wayland10Compositor6GlobalC1EP10wl_displayNS0_6Global7VersionILi4EEE@MIRWAYLAND_1.2 1.7
 _ZN3mir7wayland10Compositor6GlobalC2EP10wl_displayNS0_6Global7VersionILi4EEE@MIRWAYLAND_1.2 1.7
 _ZN3mir7wayland10Compositor6Thunks10bind_thunkEP9wl_clientPvjj@MIRWAYLAND_1.2 1.7
 _ZN3mir7wayland10Compositor6Thunks14request_vtableE@MIRWAYLAND_1.2 1.7
 _ZN3mir7wayland10Compositor6Thunks16request_messagesE@MIRWAYLAND_1.2 1.7
 _ZN3mir7wayland10Compositor6Thunks17supported_versionE@MIRWAYLAND_1.2 1.7
 _ZN3mir7wayland10Compositor6Thunks19create_region_thunkEP9wl_clientP11wl_resourcej@MIRWAYLAND_1.2 1.7
 _ZN3mir7wayland10Compositor6Thunks19create_region_typesE@MIRWAYLAND_1.2 1.7
 _ZN3mir7wayland10Compositor6Thunks20create_surface_thunkEP9wl_clientP11wl_resourcej@MIRWAYLAND_1.2 1.7
 _ZN3mir7wayland10Compositor6Thunks20create_surface_typesE@MIRWAYLAND_1.2 1.7
 _ZN3mir7wayland10Compositor6Thunks24resource_destroyed_thunkEP11wl_resource@MIRWAYLAND_1.2 1.7
 _ZN3mir7wayland10CompositorC1EP11wl_resourceNS0_8Resource7VersionILi4EEE@MIRWAYLAND_1.2 1.7
 _ZN3mir7wayland10CompositorC2EP11wl_resourceNS0_8Resource7VersionILi4EEE@MIRWAYLAND_1.2 1.7
 _ZN3mir7wayland10DataDevice11is_instanceEP11wl_resource@MIRWAYLAND_1.2 1.7
 _ZN3mir7wayland10DataDevice4fromEP11wl_resource@MIRWAYLAND_1.2 1.7
 _ZN3mir7wayland10DataDevice6Thunks11enter_typesE@MIRWAYLAND_1.2 1.7
 _ZN3mir7wayland10DataDevice6Thunks13release_thunkEP9wl_clientP11wl_resource@MIRWAYLAND_1.2 1.7
 _ZN3mir7wayland10DataDevice6Thunks14event_messagesE@MIRWAYLAND_1.2 1.7
 _ZN3mir7wayland10DataDevice6Thunks14request_vtableE@MIRWAYLAND_1.2 1.7
 _ZN3mir7wayland10DataDevice6Thunks15selection_typesE@MIRWAYLAND_1.2 1.7
 _ZN3mir7wayland10DataDevice6Thunks16data_offer_typesE@MIRWAYLAND_1.2 1.7
 _ZN3mir7wayland10DataDevice6Thunks16request_messagesE@MIRWAYLAND_1.2 1.7
 _ZN3mir7wayland10DataDevice6Thunks16start_drag_thunkEP9wl_clientP11wl_resourceS6_S6_S6_j@MIRWAYLAND_1.2 1.7
 _ZN3mir7wayland10DataDevice6Thunks16start_drag_typesE@MIRWAYLAND_1.2 1.7
 _ZN3mir7wayland10DataDevice6Thunks17supported_versionE@MIRWAYLAND_1.2 1.7
 _ZN3mir7wayland10DataDevice6Thunks19set_selection_thunkEP9wl_clientP11wl_resourceS6_j@MIRWAYLAND_1.2 1.7
 _ZN3mir7wayland10DataDevice6Thunks19set_selection_typesE@MIRWAYLAND_1.2 1.7
 _ZN3mir7wayland10DataDevice6Thunks24resource_destroyed_thunkEP11wl_resource@MIRWAYLAND_1.2 1.7
 _ZN3mir7wayland10DataDeviceC1EP11wl_resourceNS0_8Resource7VersionILi3EEE@MIRWAYLAND_1.2 1.7
 _ZN3mir7wayland10DataDeviceC2EP11wl_resourceNS0_8Resource7VersionILi3EEE@MIRWAYLAND_1.2 1.7
 _ZN3mir7wayland10DataSource11is_instanceEP11wl_resource@MIRWAYLAND_1.2 1.7
 _ZN3mir7wayland10DataSource23version_supports_actionEv@MIRWAYLAND_1.2 1.7
 _ZN3mir7wayland10DataSource29version_supports_dnd_finishedEv@MIRWAYLAND_1.2 1.7
 _ZN3mir7wayland10DataSource35version_supports_dnd_drop_performedEv@MIRWAYLAND_1.2 1.7
 _ZN3mir7wayland10DataSource4fromEP11wl_resource@MIRWAYLAND_1.2 1.7
 _ZN3mir7wayland10DataSource6Thunks11offer_thunkEP9wl_clientP11wl_resourcePKc@MIRWAYLAND_1.2 1.7
 _ZN3mir7wayland10DataSource6Thunks13destroy_thunkEP9wl_clientP11wl_resource@MIRWAYLAND_1.2 1.7
 _ZN3mir7wayland10DataSource6Thunks14event_messagesE@MIRWAYLAND_1.2 1.7
 _ZN3mir7wayland10DataSource6Thunks14request_vtableE@MIRWAYLAND_1.2 1.7
 _ZN3mir7wayland10DataSource6Thunks16request_messagesE@MIRWAYLAND_1.2 1.7
 _ZN3mir7wayland10DataSource6Thunks17set_actions_thunkEP9wl_clientP11wl_resourcej@MIRWAYLAND_1.2 1.7
 _ZN3mir7wayland10DataSource6Thunks17supported_versionE@MIRWAYLAND_1.2 1.7
 _ZN3mir7wayland10DataSource6Thunks24resource_destroyed_thunkEP11wl_resource@MIRWAYLAND_1.2 1.7
 _ZN3mir7wayland10DataSourceC1EP11wl_resourceNS0_8Resource7VersionILi3EEE@MIRWAYLAND_1.2 1.7
 _ZN3mir7wayland10DataSourceC2EP11wl_resourceNS0_8Resource7VersionILi3EEE@MIRWAYLAND_1.2 1.7
 _ZN3mir7wayland10Subsurface11is_instanceEP11wl_resource@MIRWAYLAND_1.2 1.7
 _ZN3mir7wayland10Subsurface4fromEP11wl_resource@MIRWAYLAND_1.2 1.7
 _ZN3mir7wayland10Subsurface6Thunks13destroy_thunkEP9wl_clientP11wl_resource@MIRWAYLAND_1.2 1.7
 _ZN3mir7wayland10Subsurface6Thunks14request_vtableE@MIRWAYLAND_1.2 1.7
 _ZN3mir7wayland10Subsurface6Thunks14set_sync_thunkEP9wl_clientP11wl_resource@MIRWAYLAND_1.2 1.7
 _ZN3mir7wayland10Subsurface6Thunks16request_messagesE@MIRWAYLAND_1.2 1.7
 _ZN3mir7wayland10Subsurface6Thunks16set_desync_thunkEP9wl_clientP11wl_resource@MIRWAYLAND_1.2 1.7
 _ZN3mir7wayland10Subsurface6Thunks17place_above_thunkEP9wl_clientP11wl_resourceS6_@MIRWAYLAND_1.2 1.7
 _ZN3mir7wayland10Subsurface6Thunks17place_above_typesE@MIRWAYLAND_1.2 1.7
 _ZN3mir7wayland10Subsurface6Thunks17place_below_thunkEP9wl_clientP11wl_resourceS6_@MIRWAYLAND_1.2 1.7
 _ZN3mir7wayland10Subsurface6Thunks17place_below_typesE@MIRWAYLAND_1.2 1.7
 _ZN3mir7wayland10Subsurface6Thunks17supported_versionE@MIRWAYLAND_1.2 1.7
 _ZN3mir7wayland10Subsurface6Thunks18set_position_thunkEP9wl_clientP11wl_resourceii@MIRWAYLAND_1.2 1.7
 _ZN3mir7wayland10Subsurface6Thunks24resource_destroyed_thunkEP11wl_resource@MIRWAYLAND_1.2 1.7
 _ZN3mir7wayland10SubsurfaceC1EP11wl_resourceNS0_8Resource7VersionILi1EEE@MIRWAYLAND_1.2 1.7
 _ZN3mir7wayland10SubsurfaceC2EP11wl_resourceNS0_8Resource7VersionILi1EEE@MIRWAYLAND_1.2 1.7
 _ZN3mir7wayland10XdgPopupV611is_instanceEP11wl_resource@MIRWAYLAND_1.2 1.7
 _ZN3mir7wayland10XdgPopupV64fromEP11wl_resource@MIRWAYLAND_1.2 1.7
 _ZN3mir7wayland10XdgPopupV66Thunks10grab_thunkEP9wl_clientP11wl_resourceS6_j@MIRWAYLAND_1.2 1.7
 _ZN3mir7wayland10XdgPopupV66Thunks10grab_typesE@MIRWAYLAND_1.2 1.7
 _ZN3mir7wayland10XdgPopupV66Thunks13destroy_thunkEP9wl_clientP11wl_resource@MIRWAYLAND_1.2 1.7
 _ZN3mir7wayland10XdgPopupV66Thunks14event_messagesE@MIRWAYLAND_1.2 1.7
 _ZN3mir7wayland10XdgPopupV66Thunks14request_vtableE@MIRWAYLAND_1.2 1.7
 _ZN3mir7wayland10XdgPopupV66Thunks16request_messagesE@MIRWAYLAND_1.2 1.7
 _ZN3mir7wayland10XdgPopupV66Thunks17supported_versionE@MIRWAYLAND_1.2 1.7
 _ZN3mir7wayland10XdgPopupV66Thunks24resource_destroyed_thunkEP11wl_resource@MIRWAYLAND_1.2 1.7
 _ZN3mir7wayland10XdgPopupV6C1EP11wl_resourceNS0_8Resource7VersionILi1EEE@MIRWAYLAND_1.2 1.7
 _ZN3mir7wayland10XdgPopupV6C2EP11wl_resourceNS0_8Resource7VersionILi1EEE@MIRWAYLAND_1.2 1.7
 _ZN3mir7wayland10XdgShellV611is_instanceEP11wl_resource@MIRWAYLAND_1.2 1.7
 _ZN3mir7wayland10XdgShellV64fromEP11wl_resource@MIRWAYLAND_1.2 1.7
 _ZN3mir7wayland10XdgShellV66GlobalC1EP10wl_displayNS0_6Global7VersionILi1EEE@MIRWAYLAND_1.2 1.7
 _ZN3mir7wayland10XdgShellV66GlobalC2EP10wl_displayNS0_6Global7VersionILi1EEE@MIRWAYLAND_1.2 1.7
 _ZN3mir7wayland10XdgShellV66Thunks10bind_thunkEP9wl_clientPvjj@MIRWAYLAND_1.2 1.7
 _ZN3mir7wayland10XdgShellV66Thunks10pong_thunkEP9wl_clientP11wl_resourcej@MIRWAYLAND_1.2 1.7
 _ZN3mir7wayland10XdgShellV66Thunks13destroy_thunkEP9wl_clientP11wl_resource@MIRWAYLAND_1.2 1.7
 _ZN3mir7wayland10XdgShellV66Thunks14event_messagesE@MIRWAYLAND_1.2 1.7
 _ZN3mir7wayland10XdgShellV66Thunks14request_vtableE@MIRWAYLAND_1.2 1.7
 _ZN3mir7wayland10XdgShellV66Thunks16request_messagesE@MIRWAYLAND_1.2 1.7
 _ZN3mir7wayland10XdgShellV66Thunks17supported_versionE@MIRWAYLAND_1.2 1.7
 _ZN3mir7wayland10XdgShellV66Thunks21get_xdg_surface_thunkEP9wl_clientP11wl_resourcejS6_@MIRWAYLAND_1.2 1.7
 _ZN3mir7wayland10XdgShellV66Thunks21get_xdg_surface_typesE@MIRWAYLAND_1.2 1.7
 _ZN3mir7wayland10XdgShellV66Thunks23create_positioner_thunkEP9wl_clientP11wl_resourcej@MIRWAYLAND_1.2 1.7
 _ZN3mir7wayland10XdgShellV66Thunks23create_positioner_typesE@MIRWAYLAND_1.2 1.7
 _ZN3mir7wayland10XdgShellV66Thunks24resource_destroyed_thunkEP11wl_resource@MIRWAYLAND_1.2 1.7
 _ZN3mir7wayland10XdgShellV6C1EP11wl_resourceNS0_8Resource7VersionILi1EEE@MIRWAYLAND_1.2 1.7
 _ZN3mir7wayland10XdgShellV6C2EP11wl_resourceNS0_8Resource7VersionILi1EEE@MIRWAYLAND_1.2 1.7
 _ZN3mir7wayland10XdgSurface11is_instanceEP11wl_resource@MIRWAYLAND_1.2 1.7
 _ZN3mir7wayland10XdgSurface4fromEP11wl_resource@MIRWAYLAND_1.2 1.7
 _ZN3mir7wayland10XdgSurface6Thunks13destroy_thunkEP9wl_clientP11wl_resource@MIRWAYLAND_1.2 1.7
 _ZN3mir7wayland10XdgSurface6Thunks14event_messagesE@MIRWAYLAND_1.2 1.7
 _ZN3mir7wayland10XdgSurface6Thunks14request_vtableE@MIRWAYLAND_1.2 1.7
 _ZN3mir7wayland10XdgSurface6Thunks15get_popup_thunkEP9wl_clientP11wl_resourcejS6_S6_@MIRWAYLAND_1.2 1.7
 _ZN3mir7wayland10XdgSurface6Thunks15get_popup_typesE@MIRWAYLAND_1.2 1.7
 _ZN3mir7wayland10XdgSurface6Thunks16request_messagesE@MIRWAYLAND_1.2 1.7
 _ZN3mir7wayland10XdgSurface6Thunks17supported_versionE@MIRWAYLAND_1.2 1.7
 _ZN3mir7wayland10XdgSurface6Thunks18get_toplevel_thunkEP9wl_clientP11wl_resourcej@MIRWAYLAND_1.2 1.7
 _ZN3mir7wayland10XdgSurface6Thunks18get_toplevel_typesE@MIRWAYLAND_1.2 1.7
 _ZN3mir7wayland10XdgSurface6Thunks19ack_configure_thunkEP9wl_clientP11wl_resourcej@MIRWAYLAND_1.2 1.7
 _ZN3mir7wayland10XdgSurface6Thunks24resource_destroyed_thunkEP11wl_resource@MIRWAYLAND_1.2 1.7
 _ZN3mir7wayland10XdgSurface6Thunks25set_window_geometry_thunkEP9wl_clientP11wl_resourceiiii@MIRWAYLAND_1.2 1.7
 _ZN3mir7wayland10XdgSurfaceC1EP11wl_resourceNS0_8Resource7VersionILi1EEE@MIRWAYLAND_1.2 1.7
 _ZN3mir7wayland10XdgSurfaceC2EP11wl_resourceNS0_8Resource7VersionILi1EEE@MIRWAYLAND_1.2 1.7
 _ZN3mir7wayland11XdgOutputV111is_instanceEP11wl_resource@MIRWAYLAND_1.2 1.7
 _ZN3mir7wayland11XdgOutputV121version_supports_nameEv@MIRWAYLAND_1.2 1.7
 _ZN3mir7wayland11XdgOutputV128version_supports_descriptionEv@MIRWAYLAND_1.2 1.7
 _ZN3mir7wayland11XdgOutputV14fromEP11wl_resource@MIRWAYLAND_1.2 1.7
 _ZN3mir7wayland11XdgOutputV16Thunks13destroy_thunkEP9wl_clientP11wl_resource@MIRWAYLAND_1.2 1.7
 _ZN3mir7wayland11XdgOutputV16Thunks14event_messagesE@MIRWAYLAND_1.2 1.7
 _ZN3mir7wayland11XdgOutputV16Thunks14request_vtableE@MIRWAYLAND_1.2 1.7
 _ZN3mir7wayland11XdgOutputV16Thunks16request_messagesE@MIRWAYLAND_1.2 1.7
 _ZN3mir7wayland11XdgOutputV16Thunks17supported_versionE@MIRWAYLAND_1.2 1.7
 _ZN3mir7wayland11XdgOutputV16Thunks24resource_destroyed_thunkEP11wl_resource@MIRWAYLAND_1.2 1.7
 _ZN3mir7wayland11XdgOutputV1C1EP11wl_resourceNS0_8Resource7VersionILi3EEE@MIRWAYLAND_1.2 1.7
 _ZN3mir7wayland11XdgOutputV1C2EP11wl_resourceNS0_8Resource7VersionILi3EEE@MIRWAYLAND_1.2 1.7
 _ZN3mir7wayland11XdgToplevel11is_instanceEP11wl_resource@MIRWAYLAND_1.2 1.7
 _ZN3mir7wayland11XdgToplevel4fromEP11wl_resource@MIRWAYLAND_1.2 1.7
 _ZN3mir7wayland11XdgToplevel6Thunks10move_thunkEP9wl_clientP11wl_resourceS6_j@MIRWAYLAND_1.2 1.7
 _ZN3mir7wayland11XdgToplevel6Thunks10move_typesE@MIRWAYLAND_1.2 1.7
 _ZN3mir7wayland11XdgToplevel6Thunks12resize_thunkEP9wl_clientP11wl_resourceS6_jj@MIRWAYLAND_1.2 1.7
 _ZN3mir7wayland11XdgToplevel6Thunks12resize_typesE@MIRWAYLAND_1.2 1.7
 _ZN3mir7wayland11XdgToplevel6Thunks13destroy_thunkEP9wl_clientP11wl_resource@MIRWAYLAND_1.2 1.7
 _ZN3mir7wayland11XdgToplevel6Thunks14event_messagesE@MIRWAYLAND_1.2 1.7
 _ZN3mir7wayland11XdgToplevel6Thunks14request_vtableE@MIRWAYLAND_1.2 1.7
 _ZN3mir7wayland11XdgToplevel6Thunks15set_title_thunkEP9wl_clientP11wl_resourcePKc@MIRWAYLAND_1.2 1.7
 _ZN3mir7wayland11XdgToplevel6Thunks16request_messagesE@MIRWAYLAND_1.2 1.7
 _ZN3mir7wayland11XdgToplevel6Thunks16set_app_id_thunkEP9wl_clientP11wl_resourcePKc@MIRWAYLAND_1.2 1.7
 _ZN3mir7wayland11XdgToplevel6Thunks16set_parent_thunkEP9wl_clientP11wl_resourceS6_@MIRWAYLAND_1.2 1.7
 _ZN3mir7wayland11XdgToplevel6Thunks16set_parent_typesE@MIRWAYLAND_1.2 1.7
 _ZN3mir7wayland11XdgToplevel6Thunks17supported_versionE@MIRWAYLAND_1.2 1.7
 _ZN3mir7wayland11XdgToplevel6Thunks18set_max_size_thunkEP9wl_clientP11wl_resourceii@MIRWAYLAND_1.2 1.7
 _ZN3mir7wayland11XdgToplevel6Thunks18set_min_size_thunkEP9wl_clientP11wl_resourceii@MIRWAYLAND_1.2 1.7
 _ZN3mir7wayland11XdgToplevel6Thunks19set_maximized_thunkEP9wl_clientP11wl_resource@MIRWAYLAND_1.2 1.7
 _ZN3mir7wayland11XdgToplevel6Thunks19set_minimized_thunkEP9wl_clientP11wl_resource@MIRWAYLAND_1.2 1.7
 _ZN3mir7wayland11XdgToplevel6Thunks20set_fullscreen_thunkEP9wl_clientP11wl_resourceS6_@MIRWAYLAND_1.2 1.7
 _ZN3mir7wayland11XdgToplevel6Thunks20set_fullscreen_typesE@MIRWAYLAND_1.2 1.7
 _ZN3mir7wayland11XdgToplevel6Thunks21unset_maximized_thunkEP9wl_clientP11wl_resource@MIRWAYLAND_1.2 1.7
 _ZN3mir7wayland11XdgToplevel6Thunks22show_window_menu_thunkEP9wl_clientP11wl_resourceS6_jii@MIRWAYLAND_1.2 1.7
 _ZN3mir7wayland11XdgToplevel6Thunks22show_window_menu_typesE@MIRWAYLAND_1.2 1.7
 _ZN3mir7wayland11XdgToplevel6Thunks22unset_fullscreen_thunkEP9wl_clientP11wl_resource@MIRWAYLAND_1.2 1.7
 _ZN3mir7wayland11XdgToplevel6Thunks24resource_destroyed_thunkEP11wl_resource@MIRWAYLAND_1.2 1.7
 _ZN3mir7wayland11XdgToplevelC1EP11wl_resourceNS0_8Resource7VersionILi1EEE@MIRWAYLAND_1.2 1.7
 _ZN3mir7wayland11XdgToplevelC2EP11wl_resourceNS0_8Resource7VersionILi1EEE@MIRWAYLAND_1.2 1.7
 _ZN3mir7wayland12LayerShellV111is_instanceEP11wl_resource@MIRWAYLAND_1.2 1.7
 _ZN3mir7wayland12LayerShellV14fromEP11wl_resource@MIRWAYLAND_1.2 1.7
 _ZN3mir7wayland12LayerShellV16GlobalC1EP10wl_displayNS0_6Global7VersionILi1EEE@MIRWAYLAND_1.2 1.7
 _ZN3mir7wayland12LayerShellV16GlobalC2EP10wl_displayNS0_6Global7VersionILi1EEE@MIRWAYLAND_1.2 1.7
 _ZN3mir7wayland12LayerShellV16Thunks10bind_thunkEP9wl_clientPvjj@MIRWAYLAND_1.2 1.7
 _ZN3mir7wayland12LayerShellV16Thunks14request_vtableE@MIRWAYLAND_1.2 1.7
 _ZN3mir7wayland12LayerShellV16Thunks16request_messagesE@MIRWAYLAND_1.2 1.7
 _ZN3mir7wayland12LayerShellV16Thunks17supported_versionE@MIRWAYLAND_1.2 1.7
 _ZN3mir7wayland12LayerShellV16Thunks23get_layer_surface_thunkEP9wl_clientP11wl_resourcejS6_S6_jPKc@MIRWAYLAND_1.2 1.7
 _ZN3mir7wayland12LayerShellV16Thunks23get_layer_surface_typesE@MIRWAYLAND_1.2 1.7
 _ZN3mir7wayland12LayerShellV16Thunks24resource_destroyed_thunkEP11wl_resource@MIRWAYLAND_1.2 1.7
 _ZN3mir7wayland12LayerShellV1C1EP11wl_resourceNS0_8Resource7VersionILi1EEE@MIRWAYLAND_1.2 1.7
 _ZN3mir7wayland12LayerShellV1C2EP11wl_resourceNS0_8Resource7VersionILi1EEE@MIRWAYLAND_1.2 1.7
 _ZN3mir7wayland12ShellSurface11is_instanceEP11wl_resource@MIRWAYLAND_1.2 1.7
 _ZN3mir7wayland12ShellSurface4fromEP11wl_resource@MIRWAYLAND_1.2 1.7
 _ZN3mir7wayland12ShellSurface6Thunks10move_thunkEP9wl_clientP11wl_resourceS6_j@MIRWAYLAND_1.2 1.7
 _ZN3mir7wayland12ShellSurface6Thunks10move_typesE@MIRWAYLAND_1.2 1.7
 _ZN3mir7wayland12ShellSurface6Thunks10pong_thunkEP9wl_clientP11wl_resourcej@MIRWAYLAND_1.2 1.7
 _ZN3mir7wayland12ShellSurface6Thunks12resize_thunkEP9wl_clientP11wl_resourceS6_jj@MIRWAYLAND_1.2 1.7
 _ZN3mir7wayland12ShellSurface6Thunks12resize_typesE@MIRWAYLAND_1.2 1.7
 _ZN3mir7wayland12ShellSurface6Thunks14event_messagesE@MIRWAYLAND_1.2 1.7
 _ZN3mir7wayland12ShellSurface6Thunks14request_vtableE@MIRWAYLAND_1.2 1.7
 _ZN3mir7wayland12ShellSurface6Thunks15set_class_thunkEP9wl_clientP11wl_resourcePKc@MIRWAYLAND_1.2 1.7
 _ZN3mir7wayland12ShellSurface6Thunks15set_popup_thunkEP9wl_clientP11wl_resourceS6_jS6_iij@MIRWAYLAND_1.2 1.7
 _ZN3mir7wayland12ShellSurface6Thunks15set_popup_typesE@MIRWAYLAND_1.2 1.7
 _ZN3mir7wayland12ShellSurface6Thunks15set_title_thunkEP9wl_clientP11wl_resourcePKc@MIRWAYLAND_1.2 1.7
 _ZN3mir7wayland12ShellSurface6Thunks16request_messagesE@MIRWAYLAND_1.2 1.7
 _ZN3mir7wayland12ShellSurface6Thunks17supported_versionE@MIRWAYLAND_1.2 1.7
 _ZN3mir7wayland12ShellSurface6Thunks18set_toplevel_thunkEP9wl_clientP11wl_resource@MIRWAYLAND_1.2 1.7
 _ZN3mir7wayland12ShellSurface6Thunks19set_maximized_thunkEP9wl_clientP11wl_resourceS6_@MIRWAYLAND_1.2 1.7
 _ZN3mir7wayland12ShellSurface6Thunks19set_maximized_typesE@MIRWAYLAND_1.2 1.7
 _ZN3mir7wayland12ShellSurface6Thunks19set_transient_thunkEP9wl_clientP11wl_resourceS6_iij@MIRWAYLAND_1.2 1.7
 _ZN3mir7wayland12ShellSurface6Thunks19set_transient_typesE@MIRWAYLAND_1.2 1.7
 _ZN3mir7wayland12ShellSurface6Thunks20set_fullscreen_thunkEP9wl_clientP11wl_resourcejjS6_@MIRWAYLAND_1.2 1.7
 _ZN3mir7wayland12ShellSurface6Thunks20set_fullscreen_typesE@MIRWAYLAND_1.2 1.7
 _ZN3mir7wayland12ShellSurface6Thunks24resource_destroyed_thunkEP11wl_resource@MIRWAYLAND_1.2 1.7
 _ZN3mir7wayland12ShellSurfaceC1EP11wl_resourceNS0_8Resource7VersionILi1EEE@MIRWAYLAND_1.2 1.7
 _ZN3mir7wayland12ShellSurfaceC2EP11wl_resourceNS0_8Resource7VersionILi1EEE@MIRWAYLAND_1.2 1.7
 _ZN3mir7wayland12XdgSurfaceV611is_instanceEP11wl_resource@MIRWAYLAND_1.2 1.7
 _ZN3mir7wayland12XdgSurfaceV64fromEP11wl_resource@MIRWAYLAND_1.2 1.7
 _ZN3mir7wayland12XdgSurfaceV66Thunks13destroy_thunkEP9wl_clientP11wl_resource@MIRWAYLAND_1.2 1.7
 _ZN3mir7wayland12XdgSurfaceV66Thunks14event_messagesE@MIRWAYLAND_1.2 1.7
 _ZN3mir7wayland12XdgSurfaceV66Thunks14request_vtableE@MIRWAYLAND_1.2 1.7
 _ZN3mir7wayland12XdgSurfaceV66Thunks15get_popup_thunkEP9wl_clientP11wl_resourcejS6_S6_@MIRWAYLAND_1.2 1.7
 _ZN3mir7wayland12XdgSurfaceV66Thunks15get_popup_typesE@MIRWAYLAND_1.2 1.7
 _ZN3mir7wayland12XdgSurfaceV66Thunks16request_messagesE@MIRWAYLAND_1.2 1.7
 _ZN3mir7wayland12XdgSurfaceV66Thunks17supported_versionE@MIRWAYLAND_1.2 1.7
 _ZN3mir7wayland12XdgSurfaceV66Thunks18get_toplevel_thunkEP9wl_clientP11wl_resourcej@MIRWAYLAND_1.2 1.7
 _ZN3mir7wayland12XdgSurfaceV66Thunks18get_toplevel_typesE@MIRWAYLAND_1.2 1.7
 _ZN3mir7wayland12XdgSurfaceV66Thunks19ack_configure_thunkEP9wl_clientP11wl_resourcej@MIRWAYLAND_1.2 1.7
 _ZN3mir7wayland12XdgSurfaceV66Thunks24resource_destroyed_thunkEP11wl_resource@MIRWAYLAND_1.2 1.7
 _ZN3mir7wayland12XdgSurfaceV66Thunks25set_window_geometry_thunkEP9wl_clientP11wl_resourceiiii@MIRWAYLAND_1.2 1.7
 _ZN3mir7wayland12XdgSurfaceV6C1EP11wl_resourceNS0_8Resource7VersionILi1EEE@MIRWAYLAND_1.2 1.7
 _ZN3mir7wayland12XdgSurfaceV6C2EP11wl_resourceNS0_8Resource7VersionILi1EEE@MIRWAYLAND_1.2 1.7
 _ZN3mir7wayland13Subcompositor11is_instanceEP11wl_resource@MIRWAYLAND_1.2 1.7
 _ZN3mir7wayland13Subcompositor4fromEP11wl_resource@MIRWAYLAND_1.2 1.7
 _ZN3mir7wayland13Subcompositor6GlobalC1EP10wl_displayNS0_6Global7VersionILi1EEE@MIRWAYLAND_1.2 1.7
 _ZN3mir7wayland13Subcompositor6GlobalC2EP10wl_displayNS0_6Global7VersionILi1EEE@MIRWAYLAND_1.2 1.7
 _ZN3mir7wayland13Subcompositor6Thunks10bind_thunkEP9wl_clientPvjj@MIRWAYLAND_1.2 1.7
 _ZN3mir7wayland13Subcompositor6Thunks13destroy_thunkEP9wl_clientP11wl_resource@MIRWAYLAND_1.2 1.7
 _ZN3mir7wayland13Subcompositor6Thunks14request_vtableE@MIRWAYLAND_1.2 1.7
 _ZN3mir7wayland13Subcompositor6Thunks16request_messagesE@MIRWAYLAND_1.2 1.7
 _ZN3mir7wayland13Subcompositor6Thunks17supported_versionE@MIRWAYLAND_1.2 1.7
 _ZN3mir7wayland13Subcompositor6Thunks20get_subsurface_thunkEP9wl_clientP11wl_resourcejS6_S6_@MIRWAYLAND_1.2 1.7
 _ZN3mir7wayland13Subcompositor6Thunks20get_subsurface_typesE@MIRWAYLAND_1.2 1.7
 _ZN3mir7wayland13Subcompositor6Thunks24resource_destroyed_thunkEP11wl_resource@MIRWAYLAND_1.2 1.7
 _ZN3mir7wayland13SubcompositorC1EP11wl_resourceNS0_8Resource7VersionILi1EEE@MIRWAYLAND_1.2 1.7
 _ZN3mir7wayland13SubcompositorC2EP11wl_resourceNS0_8Resource7VersionILi1EEE@MIRWAYLAND_1.2 1.7
 _ZN3mir7wayland13XdgPositioner11is_instanceEP11wl_resource@MIRWAYLAND_1.2 1.7
 _ZN3mir7wayland13XdgPositioner4fromEP11wl_resource@MIRWAYLAND_1.2 1.7
 _ZN3mir7wayland13XdgPositioner6Thunks13destroy_thunkEP9wl_clientP11wl_resource@MIRWAYLAND_1.2 1.7
 _ZN3mir7wayland13XdgPositioner6Thunks14request_vtableE@MIRWAYLAND_1.2 1.7
 _ZN3mir7wayland13XdgPositioner6Thunks14set_size_thunkEP9wl_clientP11wl_resourceii@MIRWAYLAND_1.2 1.7
 _ZN3mir7wayland13XdgPositioner6Thunks16request_messagesE@MIRWAYLAND_1.2 1.7
 _ZN3mir7wayland13XdgPositioner6Thunks16set_anchor_thunkEP9wl_clientP11wl_resourcej@MIRWAYLAND_1.2 1.7
 _ZN3mir7wayland13XdgPositioner6Thunks16set_offset_thunkEP9wl_clientP11wl_resourceii@MIRWAYLAND_1.2 1.7
 _ZN3mir7wayland13XdgPositioner6Thunks17set_gravity_thunkEP9wl_clientP11wl_resourcej@MIRWAYLAND_1.2 1.7
 _ZN3mir7wayland13XdgPositioner6Thunks17supported_versionE@MIRWAYLAND_1.2 1.7
 _ZN3mir7wayland13XdgPositioner6Thunks21set_anchor_rect_thunkEP9wl_clientP11wl_resourceiiii@MIRWAYLAND_1.2 1.7
 _ZN3mir7wayland13XdgPositioner6Thunks24resource_destroyed_thunkEP11wl_resource@MIRWAYLAND_1.2 1.7
 _ZN3mir7wayland13XdgPositioner6Thunks31set_constraint_adjustment_thunkEP9wl_clientP11wl_resourcej@MIRWAYLAND_1.2 1.7
 _ZN3mir7wayland13XdgPositionerC1EP11wl_resourceNS0_8Resource7VersionILi1EEE@MIRWAYLAND_1.2 1.7
 _ZN3mir7wayland13XdgPositionerC2EP11wl_resourceNS0_8Resource7VersionILi1EEE@MIRWAYLAND_1.2 1.7
 _ZN3mir7wayland13XdgToplevelV611is_instanceEP11wl_resource@MIRWAYLAND_1.2 1.7
 _ZN3mir7wayland13XdgToplevelV64fromEP11wl_resource@MIRWAYLAND_1.2 1.7
 _ZN3mir7wayland13XdgToplevelV66Thunks10move_thunkEP9wl_clientP11wl_resourceS6_j@MIRWAYLAND_1.2 1.7
 _ZN3mir7wayland13XdgToplevelV66Thunks10move_typesE@MIRWAYLAND_1.2 1.7
 _ZN3mir7wayland13XdgToplevelV66Thunks12resize_thunkEP9wl_clientP11wl_resourceS6_jj@MIRWAYLAND_1.2 1.7
 _ZN3mir7wayland13XdgToplevelV66Thunks12resize_typesE@MIRWAYLAND_1.2 1.7
 _ZN3mir7wayland13XdgToplevelV66Thunks13destroy_thunkEP9wl_clientP11wl_resource@MIRWAYLAND_1.2 1.7
 _ZN3mir7wayland13XdgToplevelV66Thunks14event_messagesE@MIRWAYLAND_1.2 1.7
 _ZN3mir7wayland13XdgToplevelV66Thunks14request_vtableE@MIRWAYLAND_1.2 1.7
 _ZN3mir7wayland13XdgToplevelV66Thunks15set_title_thunkEP9wl_clientP11wl_resourcePKc@MIRWAYLAND_1.2 1.7
 _ZN3mir7wayland13XdgToplevelV66Thunks16request_messagesE@MIRWAYLAND_1.2 1.7
 _ZN3mir7wayland13XdgToplevelV66Thunks16set_app_id_thunkEP9wl_clientP11wl_resourcePKc@MIRWAYLAND_1.2 1.7
 _ZN3mir7wayland13XdgToplevelV66Thunks16set_parent_thunkEP9wl_clientP11wl_resourceS6_@MIRWAYLAND_1.2 1.7
 _ZN3mir7wayland13XdgToplevelV66Thunks16set_parent_typesE@MIRWAYLAND_1.2 1.7
 _ZN3mir7wayland13XdgToplevelV66Thunks17supported_versionE@MIRWAYLAND_1.2 1.7
 _ZN3mir7wayland13XdgToplevelV66Thunks18set_max_size_thunkEP9wl_clientP11wl_resourceii@MIRWAYLAND_1.2 1.7
 _ZN3mir7wayland13XdgToplevelV66Thunks18set_min_size_thunkEP9wl_clientP11wl_resourceii@MIRWAYLAND_1.2 1.7
 _ZN3mir7wayland13XdgToplevelV66Thunks19set_maximized_thunkEP9wl_clientP11wl_resource@MIRWAYLAND_1.2 1.7
 _ZN3mir7wayland13XdgToplevelV66Thunks19set_minimized_thunkEP9wl_clientP11wl_resource@MIRWAYLAND_1.2 1.7
 _ZN3mir7wayland13XdgToplevelV66Thunks20set_fullscreen_thunkEP9wl_clientP11wl_resourceS6_@MIRWAYLAND_1.2 1.7
 _ZN3mir7wayland13XdgToplevelV66Thunks20set_fullscreen_typesE@MIRWAYLAND_1.2 1.7
 _ZN3mir7wayland13XdgToplevelV66Thunks21unset_maximized_thunkEP9wl_clientP11wl_resource@MIRWAYLAND_1.2 1.7
 _ZN3mir7wayland13XdgToplevelV66Thunks22show_window_menu_thunkEP9wl_clientP11wl_resourceS6_jii@MIRWAYLAND_1.2 1.7
 _ZN3mir7wayland13XdgToplevelV66Thunks22show_window_menu_typesE@MIRWAYLAND_1.2 1.7
 _ZN3mir7wayland13XdgToplevelV66Thunks22unset_fullscreen_thunkEP9wl_clientP11wl_resource@MIRWAYLAND_1.2 1.7
 _ZN3mir7wayland13XdgToplevelV66Thunks24resource_destroyed_thunkEP11wl_resource@MIRWAYLAND_1.2 1.7
 _ZN3mir7wayland13XdgToplevelV6C1EP11wl_resourceNS0_8Resource7VersionILi1EEE@MIRWAYLAND_1.2 1.7
 _ZN3mir7wayland13XdgToplevelV6C2EP11wl_resourceNS0_8Resource7VersionILi1EEE@MIRWAYLAND_1.2 1.7
 _ZN3mir7wayland14LayerSurfaceV111is_instanceEP11wl_resource@MIRWAYLAND_1.2 1.7
 _ZN3mir7wayland14LayerSurfaceV14fromEP11wl_resource@MIRWAYLAND_1.2 1.7
 _ZN3mir7wayland14LayerSurfaceV16Thunks13destroy_thunkEP9wl_clientP11wl_resource@MIRWAYLAND_1.2 1.7
 _ZN3mir7wayland14LayerSurfaceV16Thunks14event_messagesE@MIRWAYLAND_1.2 1.7
 _ZN3mir7wayland14LayerSurfaceV16Thunks14request_vtableE@MIRWAYLAND_1.2 1.7
 _ZN3mir7wayland14LayerSurfaceV16Thunks14set_size_thunkEP9wl_clientP11wl_resourcejj@MIRWAYLAND_1.2 1.7
 _ZN3mir7wayland14LayerSurfaceV16Thunks15get_popup_thunkEP9wl_clientP11wl_resourceS6_@MIRWAYLAND_1.2 1.7
 _ZN3mir7wayland14LayerSurfaceV16Thunks15get_popup_typesE@MIRWAYLAND_1.2 1.7
 _ZN3mir7wayland14LayerSurfaceV16Thunks16request_messagesE@MIRWAYLAND_1.2 1.7
 _ZN3mir7wayland14LayerSurfaceV16Thunks16set_anchor_thunkEP9wl_clientP11wl_resourcej@MIRWAYLAND_1.2 1.7
 _ZN3mir7wayland14LayerSurfaceV16Thunks16set_margin_thunkEP9wl_clientP11wl_resourceiiii@MIRWAYLAND_1.2 1.7
 _ZN3mir7wayland14LayerSurfaceV16Thunks17supported_versionE@MIRWAYLAND_1.2 1.7
 _ZN3mir7wayland14LayerSurfaceV16Thunks19ack_configure_thunkEP9wl_clientP11wl_resourcej@MIRWAYLAND_1.2 1.7
 _ZN3mir7wayland14LayerSurfaceV16Thunks24resource_destroyed_thunkEP11wl_resource@MIRWAYLAND_1.2 1.7
 _ZN3mir7wayland14LayerSurfaceV16Thunks24set_exclusive_zone_thunkEP9wl_clientP11wl_resourcei@MIRWAYLAND_1.2 1.7
 _ZN3mir7wayland14LayerSurfaceV16Thunks32set_keyboard_interactivity_thunkEP9wl_clientP11wl_resourcej@MIRWAYLAND_1.2 1.7
 _ZN3mir7wayland14LayerSurfaceV1C1EP11wl_resourceNS0_8Resource7VersionILi1EEE@MIRWAYLAND_1.2 1.7
 _ZN3mir7wayland14LayerSurfaceV1C2EP11wl_resourceNS0_8Resource7VersionILi1EEE@MIRWAYLAND_1.2 1.7
 _ZN3mir7wayland15XdgPositionerV611is_instanceEP11wl_resource@MIRWAYLAND_1.2 1.7
 _ZN3mir7wayland15XdgPositionerV64fromEP11wl_resource@MIRWAYLAND_1.2 1.7
 _ZN3mir7wayland15XdgPositionerV66Thunks13destroy_thunkEP9wl_clientP11wl_resource@MIRWAYLAND_1.2 1.7
 _ZN3mir7wayland15XdgPositionerV66Thunks14request_vtableE@MIRWAYLAND_1.2 1.7
 _ZN3mir7wayland15XdgPositionerV66Thunks14set_size_thunkEP9wl_clientP11wl_resourceii@MIRWAYLAND_1.2 1.7
 _ZN3mir7wayland15XdgPositionerV66Thunks16request_messagesE@MIRWAYLAND_1.2 1.7
 _ZN3mir7wayland15XdgPositionerV66Thunks16set_anchor_thunkEP9wl_clientP11wl_resourcej@MIRWAYLAND_1.2 1.7
 _ZN3mir7wayland15XdgPositionerV66Thunks16set_offset_thunkEP9wl_clientP11wl_resourceii@MIRWAYLAND_1.2 1.7
 _ZN3mir7wayland15XdgPositionerV66Thunks17set_gravity_thunkEP9wl_clientP11wl_resourcej@MIRWAYLAND_1.2 1.7
 _ZN3mir7wayland15XdgPositionerV66Thunks17supported_versionE@MIRWAYLAND_1.2 1.7
 _ZN3mir7wayland15XdgPositionerV66Thunks21set_anchor_rect_thunkEP9wl_clientP11wl_resourceiiii@MIRWAYLAND_1.2 1.7
 _ZN3mir7wayland15XdgPositionerV66Thunks24resource_destroyed_thunkEP11wl_resource@MIRWAYLAND_1.2 1.7
 _ZN3mir7wayland15XdgPositionerV66Thunks31set_constraint_adjustment_thunkEP9wl_clientP11wl_resourcej@MIRWAYLAND_1.2 1.7
 _ZN3mir7wayland15XdgPositionerV6C1EP11wl_resourceNS0_8Resource7VersionILi1EEE@MIRWAYLAND_1.2 1.7
 _ZN3mir7wayland15XdgPositionerV6C2EP11wl_resourceNS0_8Resource7VersionILi1EEE@MIRWAYLAND_1.2 1.7
 _ZN3mir7wayland17DataDeviceManager11is_instanceEP11wl_resource@MIRWAYLAND_1.2 1.7
 _ZN3mir7wayland17DataDeviceManager4fromEP11wl_resource@MIRWAYLAND_1.2 1.7
 _ZN3mir7wayland17DataDeviceManager6GlobalC1EP10wl_displayNS0_6Global7VersionILi3EEE@MIRWAYLAND_1.2 1.7
 _ZN3mir7wayland17DataDeviceManager6GlobalC2EP10wl_displayNS0_6Global7VersionILi3EEE@MIRWAYLAND_1.2 1.7
 _ZN3mir7wayland17DataDeviceManager6Thunks10bind_thunkEP9wl_clientPvjj@MIRWAYLAND_1.2 1.7
 _ZN3mir7wayland17DataDeviceManager6Thunks14request_vtableE@MIRWAYLAND_1.2 1.7
 _ZN3mir7wayland17DataDeviceManager6Thunks16request_messagesE@MIRWAYLAND_1.2 1.7
 _ZN3mir7wayland17DataDeviceManager6Thunks17supported_versionE@MIRWAYLAND_1.2 1.7
 _ZN3mir7wayland17DataDeviceManager6Thunks21get_data_device_thunkEP9wl_clientP11wl_resourcejS6_@MIRWAYLAND_1.2 1.7
 _ZN3mir7wayland17DataDeviceManager6Thunks21get_data_device_typesE@MIRWAYLAND_1.2 1.7
 _ZN3mir7wayland17DataDeviceManager6Thunks24create_data_source_thunkEP9wl_clientP11wl_resourcej@MIRWAYLAND_1.2 1.7
 _ZN3mir7wayland17DataDeviceManager6Thunks24create_data_source_typesE@MIRWAYLAND_1.2 1.7
 _ZN3mir7wayland17DataDeviceManager6Thunks24resource_destroyed_thunkEP11wl_resource@MIRWAYLAND_1.2 1.7
 _ZN3mir7wayland17DataDeviceManagerC1EP11wl_resourceNS0_8Resource7VersionILi3EEE@MIRWAYLAND_1.2 1.7
 _ZN3mir7wayland17DataDeviceManagerC2EP11wl_resourceNS0_8Resource7VersionILi3EEE@MIRWAYLAND_1.2 1.7
 _ZN3mir7wayland18XdgOutputManagerV111is_instanceEP11wl_resource@MIRWAYLAND_1.2 1.7
 _ZN3mir7wayland18XdgOutputManagerV14fromEP11wl_resource@MIRWAYLAND_1.2 1.7
 _ZN3mir7wayland18XdgOutputManagerV16GlobalC1EP10wl_displayNS0_6Global7VersionILi3EEE@MIRWAYLAND_1.2 1.7
 _ZN3mir7wayland18XdgOutputManagerV16GlobalC2EP10wl_displayNS0_6Global7VersionILi3EEE@MIRWAYLAND_1.2 1.7
 _ZN3mir7wayland18XdgOutputManagerV16Thunks10bind_thunkEP9wl_clientPvjj@MIRWAYLAND_1.2 1.7
 _ZN3mir7wayland18XdgOutputManagerV16Thunks13destroy_thunkEP9wl_clientP11wl_resource@MIRWAYLAND_1.2 1.7
 _ZN3mir7wayland18XdgOutputManagerV16Thunks14request_vtableE@MIRWAYLAND_1.2 1.7
 _ZN3mir7wayland18XdgOutputManagerV16Thunks16request_messagesE@MIRWAYLAND_1.2 1.7
 _ZN3mir7wayland18XdgOutputManagerV16Thunks17supported_versionE@MIRWAYLAND_1.2 1.7
 _ZN3mir7wayland18XdgOutputManagerV16Thunks20get_xdg_output_thunkEP9wl_clientP11wl_resourcejS6_@MIRWAYLAND_1.2 1.7
 _ZN3mir7wayland18XdgOutputManagerV16Thunks20get_xdg_output_typesE@MIRWAYLAND_1.2 1.7
 _ZN3mir7wayland18XdgOutputManagerV16Thunks24resource_destroyed_thunkEP11wl_resource@MIRWAYLAND_1.2 1.7
 _ZN3mir7wayland18XdgOutputManagerV1C1EP11wl_resourceNS0_8Resource7VersionILi3EEE@MIRWAYLAND_1.2 1.7
 _ZN3mir7wayland18XdgOutputManagerV1C2EP11wl_resourceNS0_8Resource7VersionILi3EEE@MIRWAYLAND_1.2 1.7
 _ZN3mir7wayland21wl_shm_interface_dataE@MIRWAYLAND_1.2 1.7
 _ZN3mir7wayland22wl_seat_interface_dataE@MIRWAYLAND_1.2 1.7
 _ZN3mir7wayland23wl_shell_interface_dataE@MIRWAYLAND_1.2 1.7
 _ZN3mir7wayland23wl_touch_interface_dataE@MIRWAYLAND_1.2 1.7
 _ZN3mir7wayland24wl_buffer_interface_dataE@MIRWAYLAND_1.2 1.7
 _ZN3mir7wayland24wl_output_interface_dataE@MIRWAYLAND_1.2 1.7
 _ZN3mir7wayland24wl_region_interface_dataE@MIRWAYLAND_1.2 1.7
 _ZN3mir7wayland24xdg_popup_interface_dataE@MIRWAYLAND_1.2 1.7
 _ZN3mir7wayland25wl_pointer_interface_dataE@MIRWAYLAND_1.2 1.7
 _ZN3mir7wayland25wl_surface_interface_dataE@MIRWAYLAND_1.2 1.7
 _ZN3mir7wayland26wl_callback_interface_dataE@MIRWAYLAND_1.2 1.7
 _ZN3mir7wayland26wl_keyboard_interface_dataE@MIRWAYLAND_1.2 1.7
 _ZN3mir7wayland26wl_shm_pool_interface_dataE@MIRWAYLAND_1.2 1.7
 _ZN3mir7wayland26xdg_surface_interface_dataE@MIRWAYLAND_1.2 1.7
 _ZN3mir7wayland26xdg_wm_base_interface_dataE@MIRWAYLAND_1.2 1.7
 _ZN3mir7wayland27xdg_toplevel_interface_dataE@MIRWAYLAND_1.2 1.7
 _ZN3mir7wayland28wl_compositor_interface_dataE@MIRWAYLAND_1.2 1.7
 _ZN3mir7wayland28wl_data_offer_interface_dataE@MIRWAYLAND_1.2 1.7
 _ZN3mir7wayland28wl_subsurface_interface_dataE@MIRWAYLAND_1.2 1.7
 _ZN3mir7wayland28zxdg_popup_v6_interface_dataE@MIRWAYLAND_1.2 1.7
 _ZN3mir7wayland28zxdg_shell_v6_interface_dataE@MIRWAYLAND_1.2 1.7
 _ZN3mir7wayland29wl_data_device_interface_dataE@MIRWAYLAND_1.2 1.7
 _ZN3mir7wayland29wl_data_source_interface_dataE@MIRWAYLAND_1.2 1.7
 _ZN3mir7wayland29xdg_positioner_interface_dataE@MIRWAYLAND_1.2 1.7
 _ZN3mir7wayland29zxdg_output_v1_interface_dataE@MIRWAYLAND_1.2 1.7
 _ZN3mir7wayland30zxdg_surface_v6_interface_dataE@MIRWAYLAND_1.2 1.7
 _ZN3mir7wayland31wl_shell_surface_interface_dataE@MIRWAYLAND_1.2 1.7
 _ZN3mir7wayland31wl_subcompositor_interface_dataE@MIRWAYLAND_1.2 1.7
 _ZN3mir7wayland31zxdg_toplevel_v6_interface_dataE@MIRWAYLAND_1.2 1.7
 _ZN3mir7wayland33internal_error_processing_requestEP9wl_clientPKc@MIRWAYLAND_1.2 1.7
 _ZN3mir7wayland33zxdg_positioner_v6_interface_dataE@MIRWAYLAND_1.2 1.7
 _ZN3mir7wayland34zwlr_layer_shell_v1_interface_dataE@MIRWAYLAND_1.2 1.7
 _ZN3mir7wayland36zwlr_layer_surface_v1_interface_dataE@MIRWAYLAND_1.2 1.7
 _ZN3mir7wayland37wl_data_device_manager_interface_dataE@MIRWAYLAND_1.2 1.7
 _ZN3mir7wayland37zxdg_output_manager_v1_interface_dataE@MIRWAYLAND_1.2 1.7
 _ZN3mir7wayland3Shm11is_instanceEP11wl_resource@MIRWAYLAND_1.2 1.7
 _ZN3mir7wayland3Shm4fromEP11wl_resource@MIRWAYLAND_1.2 1.7
 _ZN3mir7wayland3Shm6GlobalC1EP10wl_displayNS0_6Global7VersionILi1EEE@MIRWAYLAND_1.2 1.7
 _ZN3mir7wayland3Shm6GlobalC2EP10wl_displayNS0_6Global7VersionILi1EEE@MIRWAYLAND_1.2 1.7
 _ZN3mir7wayland3Shm6Thunks10bind_thunkEP9wl_clientPvjj@MIRWAYLAND_1.2 1.7
 _ZN3mir7wayland3Shm6Thunks14event_messagesE@MIRWAYLAND_1.2 1.7
 _ZN3mir7wayland3Shm6Thunks14request_vtableE@MIRWAYLAND_1.2 1.7
 _ZN3mir7wayland3Shm6Thunks16request_messagesE@MIRWAYLAND_1.2 1.7
 _ZN3mir7wayland3Shm6Thunks17create_pool_thunkEP9wl_clientP11wl_resourcejii@MIRWAYLAND_1.2 1.7
 _ZN3mir7wayland3Shm6Thunks17create_pool_typesE@MIRWAYLAND_1.2 1.7
 _ZN3mir7wayland3Shm6Thunks17supported_versionE@MIRWAYLAND_1.2 1.7
 _ZN3mir7wayland3Shm6Thunks24resource_destroyed_thunkEP11wl_resource@MIRWAYLAND_1.2 1.7
 _ZN3mir7wayland3ShmC1EP11wl_resourceNS0_8Resource7VersionILi1EEE@MIRWAYLAND_1.2 1.7
 _ZN3mir7wayland3ShmC2EP11wl_resourceNS0_8Resource7VersionILi1EEE@MIRWAYLAND_1.2 1.7
 _ZN3mir7wayland4Seat11is_instanceEP11wl_resource@MIRWAYLAND_1.2 1.7
 _ZN3mir7wayland4Seat21version_supports_nameEv@MIRWAYLAND_1.2 1.7
 _ZN3mir7wayland4Seat4fromEP11wl_resource@MIRWAYLAND_1.2 1.7
 _ZN3mir7wayland4Seat6GlobalC1EP10wl_displayNS0_6Global7VersionILi6EEE@MIRWAYLAND_1.2 1.7
 _ZN3mir7wayland4Seat6GlobalC2EP10wl_displayNS0_6Global7VersionILi6EEE@MIRWAYLAND_1.2 1.7
 _ZN3mir7wayland4Seat6Thunks10bind_thunkEP9wl_clientPvjj@MIRWAYLAND_1.2 1.7
 _ZN3mir7wayland4Seat6Thunks13release_thunkEP9wl_clientP11wl_resource@MIRWAYLAND_1.2 1.7
 _ZN3mir7wayland4Seat6Thunks14event_messagesE@MIRWAYLAND_1.2 1.7
 _ZN3mir7wayland4Seat6Thunks14request_vtableE@MIRWAYLAND_1.2 1.7
 _ZN3mir7wayland4Seat6Thunks15get_touch_thunkEP9wl_clientP11wl_resourcej@MIRWAYLAND_1.2 1.7
 _ZN3mir7wayland4Seat6Thunks15get_touch_typesE@MIRWAYLAND_1.2 1.7
 _ZN3mir7wayland4Seat6Thunks16request_messagesE@MIRWAYLAND_1.2 1.7
 _ZN3mir7wayland4Seat6Thunks17get_pointer_thunkEP9wl_clientP11wl_resourcej@MIRWAYLAND_1.2 1.7
 _ZN3mir7wayland4Seat6Thunks17get_pointer_typesE@MIRWAYLAND_1.2 1.7
 _ZN3mir7wayland4Seat6Thunks17supported_versionE@MIRWAYLAND_1.2 1.7
 _ZN3mir7wayland4Seat6Thunks18get_keyboard_thunkEP9wl_clientP11wl_resourcej@MIRWAYLAND_1.2 1.7
 _ZN3mir7wayland4Seat6Thunks18get_keyboard_typesE@MIRWAYLAND_1.2 1.7
 _ZN3mir7wayland4Seat6Thunks24resource_destroyed_thunkEP11wl_resource@MIRWAYLAND_1.2 1.7
 _ZN3mir7wayland4SeatC1EP11wl_resourceNS0_8Resource7VersionILi6EEE@MIRWAYLAND_1.2 1.7
 _ZN3mir7wayland4SeatC2EP11wl_resourceNS0_8Resource7VersionILi6EEE@MIRWAYLAND_1.2 1.7
 _ZN3mir7wayland5Shell11is_instanceEP11wl_resource@MIRWAYLAND_1.2 1.7
 _ZN3mir7wayland5Shell4fromEP11wl_resource@MIRWAYLAND_1.2 1.7
 _ZN3mir7wayland5Shell6GlobalC1EP10wl_displayNS0_6Global7VersionILi1EEE@MIRWAYLAND_1.2 1.7
 _ZN3mir7wayland5Shell6GlobalC2EP10wl_displayNS0_6Global7VersionILi1EEE@MIRWAYLAND_1.2 1.7
 _ZN3mir7wayland5Shell6Thunks10bind_thunkEP9wl_clientPvjj@MIRWAYLAND_1.2 1.7
 _ZN3mir7wayland5Shell6Thunks14request_vtableE@MIRWAYLAND_1.2 1.7
 _ZN3mir7wayland5Shell6Thunks16request_messagesE@MIRWAYLAND_1.2 1.7
 _ZN3mir7wayland5Shell6Thunks17supported_versionE@MIRWAYLAND_1.2 1.7
 _ZN3mir7wayland5Shell6Thunks23get_shell_surface_thunkEP9wl_clientP11wl_resourcejS6_@MIRWAYLAND_1.2 1.7
 _ZN3mir7wayland5Shell6Thunks23get_shell_surface_typesE@MIRWAYLAND_1.2 1.7
 _ZN3mir7wayland5Shell6Thunks24resource_destroyed_thunkEP11wl_resource@MIRWAYLAND_1.2 1.7
 _ZN3mir7wayland5ShellC1EP11wl_resourceNS0_8Resource7VersionILi1EEE@MIRWAYLAND_1.2 1.7
 _ZN3mir7wayland5ShellC2EP11wl_resourceNS0_8Resource7VersionILi1EEE@MIRWAYLAND_1.2 1.7
 _ZN3mir7wayland5Touch11is_instanceEP11wl_resource@MIRWAYLAND_1.2 1.7
 _ZN3mir7wayland5Touch22version_supports_shapeEv@MIRWAYLAND_1.2 1.7
 _ZN3mir7wayland5Touch28version_supports_orientationEv@MIRWAYLAND_1.2 1.7
 _ZN3mir7wayland5Touch4fromEP11wl_resource@MIRWAYLAND_1.2 1.7
 _ZN3mir7wayland5Touch6Thunks10down_typesE@MIRWAYLAND_1.2 1.7
 _ZN3mir7wayland5Touch6Thunks13release_thunkEP9wl_clientP11wl_resource@MIRWAYLAND_1.2 1.7
 _ZN3mir7wayland5Touch6Thunks14event_messagesE@MIRWAYLAND_1.2 1.7
 _ZN3mir7wayland5Touch6Thunks14request_vtableE@MIRWAYLAND_1.2 1.7
 _ZN3mir7wayland5Touch6Thunks16request_messagesE@MIRWAYLAND_1.2 1.7
 _ZN3mir7wayland5Touch6Thunks17supported_versionE@MIRWAYLAND_1.2 1.7
 _ZN3mir7wayland5Touch6Thunks24resource_destroyed_thunkEP11wl_resource@MIRWAYLAND_1.2 1.7
 _ZN3mir7wayland5TouchC1EP11wl_resourceNS0_8Resource7VersionILi6EEE@MIRWAYLAND_1.2 1.7
 _ZN3mir7wayland5TouchC2EP11wl_resourceNS0_8Resource7VersionILi6EEE@MIRWAYLAND_1.2 1.7
 _ZN3mir7wayland6Buffer11is_instanceEP11wl_resource@MIRWAYLAND_1.2 1.7
 _ZN3mir7wayland6Buffer4fromEP11wl_resource@MIRWAYLAND_1.2 1.7
 _ZN3mir7wayland6Buffer6Thunks13destroy_thunkEP9wl_clientP11wl_resource@MIRWAYLAND_1.2 1.7
 _ZN3mir7wayland6Buffer6Thunks14event_messagesE@MIRWAYLAND_1.2 1.7
 _ZN3mir7wayland6Buffer6Thunks14request_vtableE@MIRWAYLAND_1.2 1.7
 _ZN3mir7wayland6Buffer6Thunks16request_messagesE@MIRWAYLAND_1.2 1.7
 _ZN3mir7wayland6Buffer6Thunks17supported_versionE@MIRWAYLAND_1.2 1.7
 _ZN3mir7wayland6Buffer6Thunks24resource_destroyed_thunkEP11wl_resource@MIRWAYLAND_1.2 1.7
 _ZN3mir7wayland6BufferC1EP11wl_resourceNS0_8Resource7VersionILi1EEE@MIRWAYLAND_1.2 1.7
 _ZN3mir7wayland6BufferC2EP11wl_resourceNS0_8Resource7VersionILi1EEE@MIRWAYLAND_1.2 1.7
 _ZN3mir7wayland6GlobalC1EP9wl_global@MIRWAYLAND_1.2 1.7
 _ZN3mir7wayland6GlobalC2EP9wl_global@MIRWAYLAND_1.2 1.7
 _ZN3mir7wayland6GlobalD0Ev@MIRWAYLAND_1.2 1.7
 _ZN3mir7wayland6GlobalD1Ev@MIRWAYLAND_1.2 1.7
 _ZN3mir7wayland6GlobalD2Ev@MIRWAYLAND_1.2 1.7
 _ZN3mir7wayland6Output11is_instanceEP11wl_resource@MIRWAYLAND_1.2 1.7
 _ZN3mir7wayland6Output21version_supports_doneEv@MIRWAYLAND_1.2 1.7
 _ZN3mir7wayland6Output22version_supports_scaleEv@MIRWAYLAND_1.2 1.7
 _ZN3mir7wayland6Output4fromEP11wl_resource@MIRWAYLAND_1.2 1.7
 _ZN3mir7wayland6Output6GlobalC1EP10wl_displayNS0_6Global7VersionILi3EEE@MIRWAYLAND_1.2 1.7
 _ZN3mir7wayland6Output6GlobalC2EP10wl_displayNS0_6Global7VersionILi3EEE@MIRWAYLAND_1.2 1.7
 _ZN3mir7wayland6Output6Thunks10bind_thunkEP9wl_clientPvjj@MIRWAYLAND_1.2 1.7
 _ZN3mir7wayland6Output6Thunks13release_thunkEP9wl_clientP11wl_resource@MIRWAYLAND_1.2 1.7
 _ZN3mir7wayland6Output6Thunks14event_messagesE@MIRWAYLAND_1.2 1.7
 _ZN3mir7wayland6Output6Thunks14geometry_typesE@MIRWAYLAND_1.2 1.7
 _ZN3mir7wayland6Output6Thunks14request_vtableE@MIRWAYLAND_1.2 1.7
 _ZN3mir7wayland6Output6Thunks16request_messagesE@MIRWAYLAND_1.2 1.7
 _ZN3mir7wayland6Output6Thunks17supported_versionE@MIRWAYLAND_1.2 1.7
 _ZN3mir7wayland6Output6Thunks24resource_destroyed_thunkEP11wl_resource@MIRWAYLAND_1.2 1.7
 _ZN3mir7wayland6OutputC1EP11wl_resourceNS0_8Resource7VersionILi3EEE@MIRWAYLAND_1.2 1.7
 _ZN3mir7wayland6OutputC2EP11wl_resourceNS0_8Resource7VersionILi3EEE@MIRWAYLAND_1.2 1.7
 _ZN3mir7wayland6Region11is_instanceEP11wl_resource@MIRWAYLAND_1.2 1.7
 _ZN3mir7wayland6Region4fromEP11wl_resource@MIRWAYLAND_1.2 1.7
 _ZN3mir7wayland6Region6Thunks13destroy_thunkEP9wl_clientP11wl_resource@MIRWAYLAND_1.2 1.7
 _ZN3mir7wayland6Region6Thunks14request_vtableE@MIRWAYLAND_1.2 1.7
 _ZN3mir7wayland6Region6Thunks14subtract_thunkEP9wl_clientP11wl_resourceiiii@MIRWAYLAND_1.2 1.7
 _ZN3mir7wayland6Region6Thunks16request_messagesE@MIRWAYLAND_1.2 1.7
 _ZN3mir7wayland6Region6Thunks17supported_versionE@MIRWAYLAND_1.2 1.7
 _ZN3mir7wayland6Region6Thunks24resource_destroyed_thunkEP11wl_resource@MIRWAYLAND_1.2 1.7
 _ZN3mir7wayland6Region6Thunks9add_thunkEP9wl_clientP11wl_resourceiiii@MIRWAYLAND_1.2 1.7
 _ZN3mir7wayland6RegionC1EP11wl_resourceNS0_8Resource7VersionILi1EEE@MIRWAYLAND_1.2 1.7
 _ZN3mir7wayland6RegionC2EP11wl_resourceNS0_8Resource7VersionILi1EEE@MIRWAYLAND_1.2 1.7
 _ZN3mir7wayland7Pointer11is_instanceEP11wl_resource@MIRWAYLAND_1.2 1.7
 _ZN3mir7wayland7Pointer22version_supports_frameEv@MIRWAYLAND_1.2 1.7
 _ZN3mir7wayland7Pointer26version_supports_axis_stopEv@MIRWAYLAND_1.2 1.7
 _ZN3mir7wayland7Pointer28version_supports_axis_sourceEv@MIRWAYLAND_1.2 1.7
 _ZN3mir7wayland7Pointer30version_supports_axis_discreteEv@MIRWAYLAND_1.2 1.7
 _ZN3mir7wayland7Pointer4fromEP11wl_resource@MIRWAYLAND_1.2 1.7
 _ZN3mir7wayland7Pointer6Thunks11enter_typesE@MIRWAYLAND_1.2 1.7
 _ZN3mir7wayland7Pointer6Thunks11leave_typesE@MIRWAYLAND_1.2 1.7
 _ZN3mir7wayland7Pointer6Thunks13release_thunkEP9wl_clientP11wl_resource@MIRWAYLAND_1.2 1.7
 _ZN3mir7wayland7Pointer6Thunks14event_messagesE@MIRWAYLAND_1.2 1.7
 _ZN3mir7wayland7Pointer6Thunks14request_vtableE@MIRWAYLAND_1.2 1.7
 _ZN3mir7wayland7Pointer6Thunks16request_messagesE@MIRWAYLAND_1.2 1.7
 _ZN3mir7wayland7Pointer6Thunks16set_cursor_thunkEP9wl_clientP11wl_resourcejS6_ii@MIRWAYLAND_1.2 1.7
 _ZN3mir7wayland7Pointer6Thunks16set_cursor_typesE@MIRWAYLAND_1.2 1.7
 _ZN3mir7wayland7Pointer6Thunks17supported_versionE@MIRWAYLAND_1.2 1.7
 _ZN3mir7wayland7Pointer6Thunks24resource_destroyed_thunkEP11wl_resource@MIRWAYLAND_1.2 1.7
 _ZN3mir7wayland7PointerC1EP11wl_resourceNS0_8Resource7VersionILi6EEE@MIRWAYLAND_1.2 1.7
 _ZN3mir7wayland7PointerC2EP11wl_resourceNS0_8Resource7VersionILi6EEE@MIRWAYLAND_1.2 1.7
 _ZN3mir7wayland7ShmPool11is_instanceEP11wl_resource@MIRWAYLAND_1.2 1.7
 _ZN3mir7wayland7ShmPool4fromEP11wl_resource@MIRWAYLAND_1.2 1.7
 _ZN3mir7wayland7ShmPool6Thunks12resize_thunkEP9wl_clientP11wl_resourcei@MIRWAYLAND_1.2 1.7
 _ZN3mir7wayland7ShmPool6Thunks13destroy_thunkEP9wl_clientP11wl_resource@MIRWAYLAND_1.2 1.7
 _ZN3mir7wayland7ShmPool6Thunks14request_vtableE@MIRWAYLAND_1.2 1.7
 _ZN3mir7wayland7ShmPool6Thunks16request_messagesE@MIRWAYLAND_1.2 1.7
 _ZN3mir7wayland7ShmPool6Thunks17supported_versionE@MIRWAYLAND_1.2 1.7
 _ZN3mir7wayland7ShmPool6Thunks19create_buffer_thunkEP9wl_clientP11wl_resourcejiiiij@MIRWAYLAND_1.2 1.7
 _ZN3mir7wayland7ShmPool6Thunks19create_buffer_typesE@MIRWAYLAND_1.2 1.7
 _ZN3mir7wayland7ShmPool6Thunks24resource_destroyed_thunkEP11wl_resource@MIRWAYLAND_1.2 1.7
 _ZN3mir7wayland7ShmPoolC1EP11wl_resourceNS0_8Resource7VersionILi1EEE@MIRWAYLAND_1.2 1.7
 _ZN3mir7wayland7ShmPoolC2EP11wl_resourceNS0_8Resource7VersionILi1EEE@MIRWAYLAND_1.2 1.7
 _ZN3mir7wayland7Surface11is_instanceEP11wl_resource@MIRWAYLAND_1.2 1.7
 _ZN3mir7wayland7Surface4fromEP11wl_resource@MIRWAYLAND_1.2 1.7
 _ZN3mir7wayland7Surface6Thunks11enter_typesE@MIRWAYLAND_1.2 1.7
 _ZN3mir7wayland7Surface6Thunks11frame_thunkEP9wl_clientP11wl_resourcej@MIRWAYLAND_1.2 1.7
 _ZN3mir7wayland7Surface6Thunks11frame_typesE@MIRWAYLAND_1.2 1.7
 _ZN3mir7wayland7Surface6Thunks11leave_typesE@MIRWAYLAND_1.2 1.7
 _ZN3mir7wayland7Surface6Thunks12attach_thunkEP9wl_clientP11wl_resourceS6_ii@MIRWAYLAND_1.2 1.7
 _ZN3mir7wayland7Surface6Thunks12attach_typesE@MIRWAYLAND_1.2 1.7
 _ZN3mir7wayland7Surface6Thunks12commit_thunkEP9wl_clientP11wl_resource@MIRWAYLAND_1.2 1.7
 _ZN3mir7wayland7Surface6Thunks12damage_thunkEP9wl_clientP11wl_resourceiiii@MIRWAYLAND_1.2 1.7
 _ZN3mir7wayland7Surface6Thunks13destroy_thunkEP9wl_clientP11wl_resource@MIRWAYLAND_1.2 1.7
 _ZN3mir7wayland7Surface6Thunks14event_messagesE@MIRWAYLAND_1.2 1.7
 _ZN3mir7wayland7Surface6Thunks14request_vtableE@MIRWAYLAND_1.2 1.7
 _ZN3mir7wayland7Surface6Thunks16request_messagesE@MIRWAYLAND_1.2 1.7
 _ZN3mir7wayland7Surface6Thunks17supported_versionE@MIRWAYLAND_1.2 1.7
 _ZN3mir7wayland7Surface6Thunks19damage_buffer_thunkEP9wl_clientP11wl_resourceiiii@MIRWAYLAND_1.2 1.7
 _ZN3mir7wayland7Surface6Thunks22set_buffer_scale_thunkEP9wl_clientP11wl_resourcei@MIRWAYLAND_1.2 1.7
 _ZN3mir7wayland7Surface6Thunks22set_input_region_thunkEP9wl_clientP11wl_resourceS6_@MIRWAYLAND_1.2 1.7
 _ZN3mir7wayland7Surface6Thunks22set_input_region_typesE@MIRWAYLAND_1.2 1.7
 _ZN3mir7wayland7Surface6Thunks23set_opaque_region_thunkEP9wl_clientP11wl_resourceS6_@MIRWAYLAND_1.2 1.7
 _ZN3mir7wayland7Surface6Thunks23set_opaque_region_typesE@MIRWAYLAND_1.2 1.7
 _ZN3mir7wayland7Surface6Thunks24resource_destroyed_thunkEP11wl_resource@MIRWAYLAND_1.2 1.7
 _ZN3mir7wayland7Surface6Thunks26set_buffer_transform_thunkEP9wl_clientP11wl_resourcei@MIRWAYLAND_1.2 1.7
 _ZN3mir7wayland7SurfaceC1EP11wl_resourceNS0_8Resource7VersionILi4EEE@MIRWAYLAND_1.2 1.7
 _ZN3mir7wayland7SurfaceC2EP11wl_resourceNS0_8Resource7VersionILi4EEE@MIRWAYLAND_1.2 1.7
 _ZN3mir7wayland8Callback4fromEP11wl_resource@MIRWAYLAND_1.2 1.7
 _ZN3mir7wayland8Callback6Thunks14event_messagesE@MIRWAYLAND_1.2 1.7
 _ZN3mir7wayland8Callback6Thunks17supported_versionE@MIRWAYLAND_1.2 1.7
 _ZN3mir7wayland8CallbackC1EP11wl_resourceNS0_8Resource7VersionILi1EEE@MIRWAYLAND_1.2 1.7
 _ZN3mir7wayland8CallbackC2EP11wl_resourceNS0_8Resource7VersionILi1EEE@MIRWAYLAND_1.2 1.7
 (arch=mips64el ppc64 s390x)_ZN3mir7wayland8CallbackD0Ev@MIRWAYLAND_1.2 1.8.0+dfsg1
 (arch=mips64el ppc64 s390x)_ZN3mir7wayland8CallbackD1Ev@MIRWAYLAND_1.2 1.8.0+dfsg1
 (arch=mips64el ppc64 s390x)_ZN3mir7wayland8CallbackD2Ev@MIRWAYLAND_1.2 1.8.0+dfsg1
 _ZN3mir7wayland8Keyboard11is_instanceEP11wl_resource@MIRWAYLAND_1.2 1.7
 _ZN3mir7wayland8Keyboard28version_supports_repeat_infoEv@MIRWAYLAND_1.2 1.7
 _ZN3mir7wayland8Keyboard4fromEP11wl_resource@MIRWAYLAND_1.2 1.7
 _ZN3mir7wayland8Keyboard6Thunks11enter_typesE@MIRWAYLAND_1.2 1.7
 _ZN3mir7wayland8Keyboard6Thunks11leave_typesE@MIRWAYLAND_1.2 1.7
 _ZN3mir7wayland8Keyboard6Thunks13release_thunkEP9wl_clientP11wl_resource@MIRWAYLAND_1.2 1.7
 _ZN3mir7wayland8Keyboard6Thunks14event_messagesE@MIRWAYLAND_1.2 1.7
 _ZN3mir7wayland8Keyboard6Thunks14request_vtableE@MIRWAYLAND_1.2 1.7
 _ZN3mir7wayland8Keyboard6Thunks16request_messagesE@MIRWAYLAND_1.2 1.7
 _ZN3mir7wayland8Keyboard6Thunks17supported_versionE@MIRWAYLAND_1.2 1.7
 _ZN3mir7wayland8Keyboard6Thunks24resource_destroyed_thunkEP11wl_resource@MIRWAYLAND_1.2 1.7
 _ZN3mir7wayland8KeyboardC1EP11wl_resourceNS0_8Resource7VersionILi6EEE@MIRWAYLAND_1.2 1.7
 _ZN3mir7wayland8KeyboardC2EP11wl_resourceNS0_8Resource7VersionILi6EEE@MIRWAYLAND_1.2 1.7
 _ZN3mir7wayland8ResourceC1Ev@MIRWAYLAND_1.2 1.7
 _ZN3mir7wayland8ResourceC2Ev@MIRWAYLAND_1.2 1.7
 (arch=mips64el ppc64 s390x)_ZN3mir7wayland8ResourceD0Ev@MIRWAYLAND_1.2 1.8.0+dfsg1
 (arch=mips64el ppc64 s390x)_ZN3mir7wayland8ResourceD1Ev@MIRWAYLAND_1.2 1.8.0+dfsg1
 (arch=mips64el ppc64 s390x)_ZN3mir7wayland8ResourceD2Ev@MIRWAYLAND_1.2 1.8.0+dfsg1
 _ZN3mir7wayland8XdgPopup11is_instanceEP11wl_resource@MIRWAYLAND_1.2 1.7
 _ZN3mir7wayland8XdgPopup4fromEP11wl_resource@MIRWAYLAND_1.2 1.7
 _ZN3mir7wayland8XdgPopup6Thunks10grab_thunkEP9wl_clientP11wl_resourceS6_j@MIRWAYLAND_1.2 1.7
 _ZN3mir7wayland8XdgPopup6Thunks10grab_typesE@MIRWAYLAND_1.2 1.7
 _ZN3mir7wayland8XdgPopup6Thunks13destroy_thunkEP9wl_clientP11wl_resource@MIRWAYLAND_1.2 1.7
 _ZN3mir7wayland8XdgPopup6Thunks14event_messagesE@MIRWAYLAND_1.2 1.7
 _ZN3mir7wayland8XdgPopup6Thunks14request_vtableE@MIRWAYLAND_1.2 1.7
 _ZN3mir7wayland8XdgPopup6Thunks16request_messagesE@MIRWAYLAND_1.2 1.7
 _ZN3mir7wayland8XdgPopup6Thunks17supported_versionE@MIRWAYLAND_1.2 1.7
 _ZN3mir7wayland8XdgPopup6Thunks24resource_destroyed_thunkEP11wl_resource@MIRWAYLAND_1.2 1.7
 _ZN3mir7wayland8XdgPopupC1EP11wl_resourceNS0_8Resource7VersionILi1EEE@MIRWAYLAND_1.2 1.7
 _ZN3mir7wayland8XdgPopupC2EP11wl_resourceNS0_8Resource7VersionILi1EEE@MIRWAYLAND_1.2 1.7
 _ZN3mir7wayland9DataOffer11is_instanceEP11wl_resource@MIRWAYLAND_1.2 1.7
 _ZN3mir7wayland9DataOffer23version_supports_actionEv@MIRWAYLAND_1.2 1.7
 _ZN3mir7wayland9DataOffer31version_supports_source_actionsEv@MIRWAYLAND_1.2 1.7
 _ZN3mir7wayland9DataOffer4fromEP11wl_resource@MIRWAYLAND_1.2 1.7
 _ZN3mir7wayland9DataOffer6Thunks12accept_thunkEP9wl_clientP11wl_resourcejPKc@MIRWAYLAND_1.2 1.7
 _ZN3mir7wayland9DataOffer6Thunks12finish_thunkEP9wl_clientP11wl_resource@MIRWAYLAND_1.2 1.7
 _ZN3mir7wayland9DataOffer6Thunks13destroy_thunkEP9wl_clientP11wl_resource@MIRWAYLAND_1.2 1.7
 _ZN3mir7wayland9DataOffer6Thunks13receive_thunkEP9wl_clientP11wl_resourcePKci@MIRWAYLAND_1.2 1.7
 _ZN3mir7wayland9DataOffer6Thunks14event_messagesE@MIRWAYLAND_1.2 1.7
 _ZN3mir7wayland9DataOffer6Thunks14request_vtableE@MIRWAYLAND_1.2 1.7
 _ZN3mir7wayland9DataOffer6Thunks16request_messagesE@MIRWAYLAND_1.2 1.7
 _ZN3mir7wayland9DataOffer6Thunks17set_actions_thunkEP9wl_clientP11wl_resourcejj@MIRWAYLAND_1.2 1.7
 _ZN3mir7wayland9DataOffer6Thunks17supported_versionE@MIRWAYLAND_1.2 1.7
 _ZN3mir7wayland9DataOffer6Thunks24resource_destroyed_thunkEP11wl_resource@MIRWAYLAND_1.2 1.7
 _ZN3mir7wayland9DataOfferC1ERKNS0_10DataDeviceE@MIRWAYLAND_1.2 1.7
 _ZN3mir7wayland9DataOfferC2ERKNS0_10DataDeviceE@MIRWAYLAND_1.2 1.7
 _ZN3mir7wayland9XdgWmBase11is_instanceEP11wl_resource@MIRWAYLAND_1.2 1.7
 _ZN3mir7wayland9XdgWmBase4fromEP11wl_resource@MIRWAYLAND_1.2 1.7
 _ZN3mir7wayland9XdgWmBase6GlobalC1EP10wl_displayNS0_6Global7VersionILi1EEE@MIRWAYLAND_1.2 1.7
 _ZN3mir7wayland9XdgWmBase6GlobalC2EP10wl_displayNS0_6Global7VersionILi1EEE@MIRWAYLAND_1.2 1.7
 _ZN3mir7wayland9XdgWmBase6Thunks10bind_thunkEP9wl_clientPvjj@MIRWAYLAND_1.2 1.7
 _ZN3mir7wayland9XdgWmBase6Thunks10pong_thunkEP9wl_clientP11wl_resourcej@MIRWAYLAND_1.2 1.7
 _ZN3mir7wayland9XdgWmBase6Thunks13destroy_thunkEP9wl_clientP11wl_resource@MIRWAYLAND_1.2 1.7
 _ZN3mir7wayland9XdgWmBase6Thunks14event_messagesE@MIRWAYLAND_1.2 1.7
 _ZN3mir7wayland9XdgWmBase6Thunks14request_vtableE@MIRWAYLAND_1.2 1.7
 _ZN3mir7wayland9XdgWmBase6Thunks16request_messagesE@MIRWAYLAND_1.2 1.7
 _ZN3mir7wayland9XdgWmBase6Thunks17supported_versionE@MIRWAYLAND_1.2 1.7
 _ZN3mir7wayland9XdgWmBase6Thunks21get_xdg_surface_thunkEP9wl_clientP11wl_resourcejS6_@MIRWAYLAND_1.2 1.7
 _ZN3mir7wayland9XdgWmBase6Thunks21get_xdg_surface_typesE@MIRWAYLAND_1.2 1.7
 _ZN3mir7wayland9XdgWmBase6Thunks23create_positioner_thunkEP9wl_clientP11wl_resourcej@MIRWAYLAND_1.2 1.7
 _ZN3mir7wayland9XdgWmBase6Thunks23create_positioner_typesE@MIRWAYLAND_1.2 1.7
 _ZN3mir7wayland9XdgWmBase6Thunks24resource_destroyed_thunkEP11wl_resource@MIRWAYLAND_1.2 1.7
 _ZN3mir7wayland9XdgWmBaseC1EP11wl_resourceNS0_8Resource7VersionILi1EEE@MIRWAYLAND_1.2 1.7
 _ZN3mir7wayland9XdgWmBaseC2EP11wl_resourceNS0_8Resource7VersionILi1EEE@MIRWAYLAND_1.2 1.7
 _ZNK3mir7wayland10Compositor22destroy_wayland_objectEv@MIRWAYLAND_1.2 1.7
 _ZNK3mir7wayland10Compositor6Global14interface_nameEv@MIRWAYLAND_1.2 1.7
 _ZNK3mir7wayland10DataDevice15send_drop_eventEv@MIRWAYLAND_1.2 1.7
 _ZNK3mir7wayland10DataDevice16send_enter_eventEjP11wl_resourceddRKNSt12experimental15fundamentals_v18optionalIS3_EE@MIRWAYLAND_1.2 1.7
 _ZNK3mir7wayland10DataDevice16send_leave_eventEv@MIRWAYLAND_1.2 1.7
 _ZNK3mir7wayland10DataDevice17send_motion_eventEjdd@MIRWAYLAND_1.2 1.7
 _ZNK3mir7wayland10DataDevice20send_selection_eventERKNSt12experimental15fundamentals_v18optionalIP11wl_resourceEE@MIRWAYLAND_1.2 1.7
 _ZNK3mir7wayland10DataDevice21send_data_offer_eventEP11wl_resource@MIRWAYLAND_1.2 1.7
 _ZNK3mir7wayland10DataDevice22destroy_wayland_objectEv@MIRWAYLAND_1.2 1.7
 _ZNK3mir7wayland10DataSource15send_send_eventERKNSt7__cxx1112basic_stringIcSt11char_traitsIcESaIcEEENS_2FdE@MIRWAYLAND_1.2 1.7
 _ZNK3mir7wayland10DataSource17send_action_eventEj@MIRWAYLAND_1.2 1.7
 _ZNK3mir7wayland10DataSource17send_target_eventERKNSt12experimental15fundamentals_v18optionalINSt7__cxx1112basic_stringIcSt11char_traitsIcESaIcEEEEE@MIRWAYLAND_1.2 1.7
 _ZNK3mir7wayland10DataSource20send_cancelled_eventEv@MIRWAYLAND_1.2 1.7
 _ZNK3mir7wayland10DataSource22destroy_wayland_objectEv@MIRWAYLAND_1.2 1.7
 _ZNK3mir7wayland10DataSource23send_dnd_finished_eventEv@MIRWAYLAND_1.2 1.7
 _ZNK3mir7wayland10DataSource29send_dnd_drop_performed_eventEv@MIRWAYLAND_1.2 1.7
 _ZNK3mir7wayland10Subsurface22destroy_wayland_objectEv@MIRWAYLAND_1.2 1.7
 _ZNK3mir7wayland10XdgPopupV620send_configure_eventEiiii@MIRWAYLAND_1.2 1.7
 _ZNK3mir7wayland10XdgPopupV621send_popup_done_eventEv@MIRWAYLAND_1.2 1.7
 _ZNK3mir7wayland10XdgPopupV622destroy_wayland_objectEv@MIRWAYLAND_1.2 1.7
 _ZNK3mir7wayland10XdgShellV615send_ping_eventEj@MIRWAYLAND_1.2 1.7
 _ZNK3mir7wayland10XdgShellV622destroy_wayland_objectEv@MIRWAYLAND_1.2 1.7
 _ZNK3mir7wayland10XdgShellV66Global14interface_nameEv@MIRWAYLAND_1.2 1.7
 _ZNK3mir7wayland10XdgSurface20send_configure_eventEj@MIRWAYLAND_1.2 1.7
 _ZNK3mir7wayland10XdgSurface22destroy_wayland_objectEv@MIRWAYLAND_1.2 1.7
 _ZNK3mir7wayland11XdgOutputV115send_done_eventEv@MIRWAYLAND_1.2 1.7
 _ZNK3mir7wayland11XdgOutputV115send_name_eventERKNSt7__cxx1112basic_stringIcSt11char_traitsIcESaIcEEE@MIRWAYLAND_1.2 1.7
 _ZNK3mir7wayland11XdgOutputV122destroy_wayland_objectEv@MIRWAYLAND_1.2 1.7
 _ZNK3mir7wayland11XdgOutputV122send_description_eventERKNSt7__cxx1112basic_stringIcSt11char_traitsIcESaIcEEE@MIRWAYLAND_1.2 1.7
 _ZNK3mir7wayland11XdgOutputV123send_logical_size_eventEii@MIRWAYLAND_1.2 1.7
 _ZNK3mir7wayland11XdgOutputV127send_logical_position_eventEii@MIRWAYLAND_1.2 1.7
 _ZNK3mir7wayland11XdgToplevel16send_close_eventEv@MIRWAYLAND_1.2 1.7
 _ZNK3mir7wayland11XdgToplevel20send_configure_eventEiiP8wl_array@MIRWAYLAND_1.2 1.7
 _ZNK3mir7wayland11XdgToplevel22destroy_wayland_objectEv@MIRWAYLAND_1.2 1.7
 _ZNK3mir7wayland12LayerShellV122destroy_wayland_objectEv@MIRWAYLAND_1.2 1.7
 _ZNK3mir7wayland12LayerShellV16Global14interface_nameEv@MIRWAYLAND_1.2 1.7
 _ZNK3mir7wayland12ShellSurface15send_ping_eventEj@MIRWAYLAND_1.2 1.7
 _ZNK3mir7wayland12ShellSurface20send_configure_eventEjii@MIRWAYLAND_1.2 1.7
 _ZNK3mir7wayland12ShellSurface21send_popup_done_eventEv@MIRWAYLAND_1.2 1.7
 _ZNK3mir7wayland12ShellSurface22destroy_wayland_objectEv@MIRWAYLAND_1.2 1.7
 _ZNK3mir7wayland12XdgSurfaceV620send_configure_eventEj@MIRWAYLAND_1.2 1.7
 _ZNK3mir7wayland12XdgSurfaceV622destroy_wayland_objectEv@MIRWAYLAND_1.2 1.7
 _ZNK3mir7wayland13Subcompositor22destroy_wayland_objectEv@MIRWAYLAND_1.2 1.7
 _ZNK3mir7wayland13Subcompositor6Global14interface_nameEv@MIRWAYLAND_1.2 1.7
 _ZNK3mir7wayland13XdgPositioner22destroy_wayland_objectEv@MIRWAYLAND_1.2 1.7
 _ZNK3mir7wayland13XdgToplevelV616send_close_eventEv@MIRWAYLAND_1.2 1.7
 _ZNK3mir7wayland13XdgToplevelV620send_configure_eventEiiP8wl_array@MIRWAYLAND_1.2 1.7
 _ZNK3mir7wayland13XdgToplevelV622destroy_wayland_objectEv@MIRWAYLAND_1.2 1.7
 _ZNK3mir7wayland14LayerSurfaceV117send_closed_eventEv@MIRWAYLAND_1.2 1.7
 _ZNK3mir7wayland14LayerSurfaceV120send_configure_eventEjjj@MIRWAYLAND_1.2 1.7
 _ZNK3mir7wayland14LayerSurfaceV122destroy_wayland_objectEv@MIRWAYLAND_1.2 1.7
 _ZNK3mir7wayland15XdgPositionerV622destroy_wayland_objectEv@MIRWAYLAND_1.2 1.7
 _ZNK3mir7wayland17DataDeviceManager22destroy_wayland_objectEv@MIRWAYLAND_1.2 1.7
 _ZNK3mir7wayland17DataDeviceManager6Global14interface_nameEv@MIRWAYLAND_1.2 1.7
 _ZNK3mir7wayland18XdgOutputManagerV122destroy_wayland_objectEv@MIRWAYLAND_1.2 1.7
 _ZNK3mir7wayland18XdgOutputManagerV16Global14interface_nameEv@MIRWAYLAND_1.2 1.7
 _ZNK3mir7wayland3Shm17send_format_eventEj@MIRWAYLAND_1.2 1.7
 _ZNK3mir7wayland3Shm22destroy_wayland_objectEv@MIRWAYLAND_1.2 1.7
 _ZNK3mir7wayland3Shm6Global14interface_nameEv@MIRWAYLAND_1.2 1.7
 _ZNK3mir7wayland4Seat15send_name_eventERKNSt7__cxx1112basic_stringIcSt11char_traitsIcESaIcEEE@MIRWAYLAND_1.2 1.7
 _ZNK3mir7wayland4Seat22destroy_wayland_objectEv@MIRWAYLAND_1.2 1.7
 _ZNK3mir7wayland4Seat23send_capabilities_eventEj@MIRWAYLAND_1.2 1.7
 _ZNK3mir7wayland4Seat6Global14interface_nameEv@MIRWAYLAND_1.2 1.7
 _ZNK3mir7wayland5Shell22destroy_wayland_objectEv@MIRWAYLAND_1.2 1.7
 _ZNK3mir7wayland5Shell6Global14interface_nameEv@MIRWAYLAND_1.2 1.7
 _ZNK3mir7wayland5Touch13send_up_eventEjji@MIRWAYLAND_1.2 1.7
 _ZNK3mir7wayland5Touch15send_down_eventEjjP11wl_resourceidd@MIRWAYLAND_1.2 1.7
 _ZNK3mir7wayland5Touch16send_frame_eventEv@MIRWAYLAND_1.2 1.7
 _ZNK3mir7wayland5Touch16send_shape_eventEidd@MIRWAYLAND_1.2 1.7
 _ZNK3mir7wayland5Touch17send_cancel_eventEv@MIRWAYLAND_1.2 1.7
 _ZNK3mir7wayland5Touch17send_motion_eventEjidd@MIRWAYLAND_1.2 1.7
 _ZNK3mir7wayland5Touch22destroy_wayland_objectEv@MIRWAYLAND_1.2 1.7
 _ZNK3mir7wayland5Touch22send_orientation_eventEid@MIRWAYLAND_1.2 1.7
 _ZNK3mir7wayland6Buffer18send_release_eventEv@MIRWAYLAND_1.2 1.7
 _ZNK3mir7wayland6Buffer22destroy_wayland_objectEv@MIRWAYLAND_1.2 1.7
 _ZNK3mir7wayland6Output15send_done_eventEv@MIRWAYLAND_1.2 1.7
 _ZNK3mir7wayland6Output15send_mode_eventEjiii@MIRWAYLAND_1.2 1.7
 _ZNK3mir7wayland6Output16send_scale_eventEi@MIRWAYLAND_1.2 1.7
 _ZNK3mir7wayland6Output19send_geometry_eventEiiiiiRKNSt7__cxx1112basic_stringIcSt11char_traitsIcESaIcEEES9_i@MIRWAYLAND_1.2 1.7
 _ZNK3mir7wayland6Output22destroy_wayland_objectEv@MIRWAYLAND_1.2 1.7
 _ZNK3mir7wayland6Output6Global14interface_nameEv@MIRWAYLAND_1.2 1.7
 _ZNK3mir7wayland6Region22destroy_wayland_objectEv@MIRWAYLAND_1.2 1.7
 _ZNK3mir7wayland7Pointer15send_axis_eventEjjd@MIRWAYLAND_1.2 1.7
 _ZNK3mir7wayland7Pointer16send_enter_eventEjP11wl_resourcedd@MIRWAYLAND_1.2 1.7
 _ZNK3mir7wayland7Pointer16send_frame_eventEv@MIRWAYLAND_1.2 1.7
 _ZNK3mir7wayland7Pointer16send_leave_eventEjP11wl_resource@MIRWAYLAND_1.2 1.7
 _ZNK3mir7wayland7Pointer17send_button_eventEjjjj@MIRWAYLAND_1.2 1.7
 _ZNK3mir7wayland7Pointer17send_motion_eventEjdd@MIRWAYLAND_1.2 1.7
 _ZNK3mir7wayland7Pointer20send_axis_stop_eventEjj@MIRWAYLAND_1.2 1.7
 _ZNK3mir7wayland7Pointer22destroy_wayland_objectEv@MIRWAYLAND_1.2 1.7
 _ZNK3mir7wayland7Pointer22send_axis_source_eventEj@MIRWAYLAND_1.2 1.7
 _ZNK3mir7wayland7Pointer24send_axis_discrete_eventEji@MIRWAYLAND_1.2 1.7
 _ZNK3mir7wayland7ShmPool22destroy_wayland_objectEv@MIRWAYLAND_1.2 1.7
 _ZNK3mir7wayland7Surface16send_enter_eventEP11wl_resource@MIRWAYLAND_1.2 1.7
 _ZNK3mir7wayland7Surface16send_leave_eventEP11wl_resource@MIRWAYLAND_1.2 1.7
 _ZNK3mir7wayland7Surface22destroy_wayland_objectEv@MIRWAYLAND_1.2 1.7
 _ZNK3mir7wayland8Callback15send_done_eventEj@MIRWAYLAND_1.2 1.7
 _ZNK3mir7wayland8Callback22destroy_wayland_objectEv@MIRWAYLAND_1.2 1.7
 _ZNK3mir7wayland8Keyboard14send_key_eventEjjjj@MIRWAYLAND_1.2 1.7
 _ZNK3mir7wayland8Keyboard16send_enter_eventEjP11wl_resourceP8wl_array@MIRWAYLAND_1.2 1.7
 _ZNK3mir7wayland8Keyboard16send_leave_eventEjP11wl_resource@MIRWAYLAND_1.2 1.7
 _ZNK3mir7wayland8Keyboard17send_keymap_eventEjNS_2FdEj@MIRWAYLAND_1.2 1.7
 _ZNK3mir7wayland8Keyboard20send_modifiers_eventEjjjjj@MIRWAYLAND_1.2 1.7
 _ZNK3mir7wayland8Keyboard22destroy_wayland_objectEv@MIRWAYLAND_1.2 1.7
 _ZNK3mir7wayland8Keyboard22send_repeat_info_eventEii@MIRWAYLAND_1.2 1.7
 _ZNK3mir7wayland8XdgPopup20send_configure_eventEiiii@MIRWAYLAND_1.2 1.7
 _ZNK3mir7wayland8XdgPopup21send_popup_done_eventEv@MIRWAYLAND_1.2 1.7
 _ZNK3mir7wayland8XdgPopup22destroy_wayland_objectEv@MIRWAYLAND_1.2 1.7
 _ZNK3mir7wayland9DataOffer16send_offer_eventERKNSt7__cxx1112basic_stringIcSt11char_traitsIcESaIcEEE@MIRWAYLAND_1.2 1.7
 _ZNK3mir7wayland9DataOffer17send_action_eventEj@MIRWAYLAND_1.2 1.7
 _ZNK3mir7wayland9DataOffer22destroy_wayland_objectEv@MIRWAYLAND_1.2 1.7
 _ZNK3mir7wayland9DataOffer25send_source_actions_eventEj@MIRWAYLAND_1.2 1.7
 _ZNK3mir7wayland9XdgWmBase15send_ping_eventEj@MIRWAYLAND_1.2 1.7
 _ZNK3mir7wayland9XdgWmBase22destroy_wayland_objectEv@MIRWAYLAND_1.2 1.7
 _ZNK3mir7wayland9XdgWmBase6Global14interface_nameEv@MIRWAYLAND_1.2 1.7
 _ZTIN3mir7wayland10Compositor6GlobalE@MIRWAYLAND_1.2 1.7
 (arch=mips64el ppc64 s390x)_ZTIN3mir7wayland10CompositorE@MIRWAYLAND_1.2 1.8.0+dfsg1
 (arch=mips64el ppc64 s390x)_ZTIN3mir7wayland10DataDeviceE@MIRWAYLAND_1.2 1.8.0+dfsg1
 (arch=mips64el ppc64 s390x)_ZTIN3mir7wayland10DataSourceE@MIRWAYLAND_1.2 1.8.0+dfsg1
 (arch=mips64el ppc64 s390x)_ZTIN3mir7wayland10SubsurfaceE@MIRWAYLAND_1.2 1.8.0+dfsg1
 (arch=mips64el ppc64 s390x)_ZTIN3mir7wayland10XdgPopupV6E@MIRWAYLAND_1.2 1.8.0+dfsg1
 _ZTIN3mir7wayland10XdgShellV66GlobalE@MIRWAYLAND_1.2 1.7
 (arch=mips64el ppc64 s390x)_ZTIN3mir7wayland10XdgShellV6E@MIRWAYLAND_1.2 1.8.0+dfsg1
 (arch=mips64el ppc64 s390x)_ZTIN3mir7wayland10XdgSurfaceE@MIRWAYLAND_1.2 1.8.0+dfsg1
 (arch=mips64el ppc64 s390x)_ZTIN3mir7wayland11XdgOutputV1E@MIRWAYLAND_1.2 1.8.0+dfsg1
 (arch=mips64el ppc64 s390x)_ZTIN3mir7wayland11XdgToplevelE@MIRWAYLAND_1.2 1.8.0+dfsg1
 _ZTIN3mir7wayland12LayerShellV16GlobalE@MIRWAYLAND_1.2 1.7
 (arch=mips64el ppc64 s390x)_ZTIN3mir7wayland12LayerShellV1E@MIRWAYLAND_1.2 1.8.0+dfsg1
 (arch=mips64el ppc64 s390x)_ZTIN3mir7wayland12ShellSurfaceE@MIRWAYLAND_1.2 1.8.0+dfsg1
 (arch=mips64el ppc64 s390x)_ZTIN3mir7wayland12XdgSurfaceV6E@MIRWAYLAND_1.2 1.8.0+dfsg1
 _ZTIN3mir7wayland13Subcompositor6GlobalE@MIRWAYLAND_1.2 1.7
 (arch=mips64el ppc64 s390x)_ZTIN3mir7wayland13SubcompositorE@MIRWAYLAND_1.2 1.8.0+dfsg1
 (arch=mips64el ppc64 s390x)_ZTIN3mir7wayland13XdgPositionerE@MIRWAYLAND_1.2 1.8.0+dfsg1
 (arch=mips64el ppc64 s390x)_ZTIN3mir7wayland13XdgToplevelV6E@MIRWAYLAND_1.2 1.8.0+dfsg1
 (arch=mips64el ppc64 s390x)_ZTIN3mir7wayland14LayerSurfaceV1E@MIRWAYLAND_1.2 1.8.0+dfsg1
 (arch=mips64el ppc64 s390x)_ZTIN3mir7wayland15XdgPositionerV6E@MIRWAYLAND_1.2 1.8.0+dfsg1
 _ZTIN3mir7wayland17DataDeviceManager6GlobalE@MIRWAYLAND_1.2 1.7
 (arch=mips64el ppc64 s390x)_ZTIN3mir7wayland17DataDeviceManagerE@MIRWAYLAND_1.2 1.8.0+dfsg1
 _ZTIN3mir7wayland18XdgOutputManagerV16GlobalE@MIRWAYLAND_1.2 1.7
 (arch=mips64el ppc64 s390x)_ZTIN3mir7wayland18XdgOutputManagerV1E@MIRWAYLAND_1.2 1.8.0+dfsg1
 _ZTIN3mir7wayland3Shm6GlobalE@MIRWAYLAND_1.2 1.7
 (arch=mips64el ppc64 s390x)_ZTIN3mir7wayland3ShmE@MIRWAYLAND_1.2 1.8.0+dfsg1
 _ZTIN3mir7wayland4Seat6GlobalE@MIRWAYLAND_1.2 1.7
 (arch=mips64el ppc64 s390x)_ZTIN3mir7wayland4SeatE@MIRWAYLAND_1.2 1.8.0+dfsg1
 _ZTIN3mir7wayland5Shell6GlobalE@MIRWAYLAND_1.2 1.7
 (arch=mips64el ppc64 s390x)_ZTIN3mir7wayland5ShellE@MIRWAYLAND_1.2 1.8.0+dfsg1
 (arch=mips64el ppc64 s390x)_ZTIN3mir7wayland5TouchE@MIRWAYLAND_1.2 1.8.0+dfsg1
 (arch=mips64el ppc64 s390x)_ZTIN3mir7wayland6BufferE@MIRWAYLAND_1.2 1.8.0+dfsg1
 _ZTIN3mir7wayland6GlobalE@MIRWAYLAND_1.2 1.7
 _ZTIN3mir7wayland6Output6GlobalE@MIRWAYLAND_1.2 1.7
 (arch=mips64el ppc64 s390x)_ZTIN3mir7wayland6OutputE@MIRWAYLAND_1.2 1.8.0+dfsg1
 (arch=mips64el ppc64 s390x)_ZTIN3mir7wayland6RegionE@MIRWAYLAND_1.2 1.8.0+dfsg1
 (arch=mips64el ppc64 s390x)_ZTIN3mir7wayland7PointerE@MIRWAYLAND_1.2 1.8.0+dfsg1
 (arch=mips64el ppc64 s390x)_ZTIN3mir7wayland7ShmPoolE@MIRWAYLAND_1.2 1.8.0+dfsg1
 (arch=mips64el ppc64 s390x)_ZTIN3mir7wayland7SurfaceE@MIRWAYLAND_1.2 1.8.0+dfsg1
 (arch=mips64el ppc64 s390x)_ZTIN3mir7wayland8CallbackE@MIRWAYLAND_1.2 1.8.0+dfsg1
 (arch=mips64el ppc64 s390x)_ZTIN3mir7wayland8KeyboardE@MIRWAYLAND_1.2 1.8.0+dfsg1
 _ZTIN3mir7wayland8ResourceE@MIRWAYLAND_1.2 1.7
 (arch=mips64el ppc64 s390x)_ZTIN3mir7wayland8XdgPopupE@MIRWAYLAND_1.2 1.8.0+dfsg1
 (arch=mips64el ppc64 s390x)_ZTIN3mir7wayland9DataOfferE@MIRWAYLAND_1.2 1.8.0+dfsg1
 _ZTIN3mir7wayland9XdgWmBase6GlobalE@MIRWAYLAND_1.2 1.7
 (arch=mips64el ppc64 s390x)_ZTIN3mir7wayland9XdgWmBaseE@MIRWAYLAND_1.2 1.8.0+dfsg1
 _ZTVN3mir7wayland10Compositor6GlobalE@MIRWAYLAND_1.2 1.7
 (arch=mips64el ppc64 s390x)_ZTVN3mir7wayland10CompositorE@MIRWAYLAND_1.2 1.8.0+dfsg1
 (arch=mips64el ppc64 s390x)_ZTVN3mir7wayland10DataDeviceE@MIRWAYLAND_1.2 1.8.0+dfsg1
 (arch=mips64el ppc64 s390x)_ZTVN3mir7wayland10DataSourceE@MIRWAYLAND_1.2 1.8.0+dfsg1
 (arch=mips64el ppc64 s390x)_ZTVN3mir7wayland10SubsurfaceE@MIRWAYLAND_1.2 1.8.0+dfsg1
 (arch=mips64el ppc64 s390x)_ZTVN3mir7wayland10XdgPopupV6E@MIRWAYLAND_1.2 1.8.0+dfsg1
 _ZTVN3mir7wayland10XdgShellV66GlobalE@MIRWAYLAND_1.2 1.7
 (arch=mips64el ppc64 s390x)_ZTVN3mir7wayland10XdgShellV6E@MIRWAYLAND_1.2 1.8.0+dfsg1
 (arch=mips64el ppc64 s390x)_ZTVN3mir7wayland10XdgSurfaceE@MIRWAYLAND_1.2 1.8.0+dfsg1
 (arch=mips64el ppc64 s390x)_ZTVN3mir7wayland11XdgOutputV1E@MIRWAYLAND_1.2 1.8.0+dfsg1
 (arch=mips64el ppc64 s390x)_ZTVN3mir7wayland11XdgToplevelE@MIRWAYLAND_1.2 1.8.0+dfsg1
 _ZTVN3mir7wayland12LayerShellV16GlobalE@MIRWAYLAND_1.2 1.7
 (arch=mips64el ppc64 s390x)_ZTVN3mir7wayland12LayerShellV1E@MIRWAYLAND_1.2 1.8.0+dfsg1
 (arch=mips64el ppc64 s390x)_ZTVN3mir7wayland12ShellSurfaceE@MIRWAYLAND_1.2 1.8.0+dfsg1
 (arch=mips64el ppc64 s390x)_ZTVN3mir7wayland12XdgSurfaceV6E@MIRWAYLAND_1.2 1.8.0+dfsg1
 _ZTVN3mir7wayland13Subcompositor6GlobalE@MIRWAYLAND_1.2 1.7
 (arch=mips64el ppc64 s390x)_ZTVN3mir7wayland13SubcompositorE@MIRWAYLAND_1.2 1.8.0+dfsg1
 (arch=mips64el ppc64 s390x)_ZTVN3mir7wayland13XdgPositionerE@MIRWAYLAND_1.2 1.8.0+dfsg1
 (arch=mips64el ppc64 s390x)_ZTVN3mir7wayland13XdgToplevelV6E@MIRWAYLAND_1.2 1.8.0+dfsg1
 (arch=mips64el ppc64 s390x)_ZTVN3mir7wayland14LayerSurfaceV1E@MIRWAYLAND_1.2 1.8.0+dfsg1
 (arch=mips64el ppc64 s390x)_ZTVN3mir7wayland15XdgPositionerV6E@MIRWAYLAND_1.2 1.8.0+dfsg1
 _ZTVN3mir7wayland17DataDeviceManager6GlobalE@MIRWAYLAND_1.2 1.7
 (arch=mips64el ppc64 s390x)_ZTVN3mir7wayland17DataDeviceManagerE@MIRWAYLAND_1.2 1.8.0+dfsg1
 _ZTVN3mir7wayland18XdgOutputManagerV16GlobalE@MIRWAYLAND_1.2 1.7
 (arch=mips64el ppc64 s390x)_ZTVN3mir7wayland18XdgOutputManagerV1E@MIRWAYLAND_1.2 1.8.0+dfsg1
 _ZTVN3mir7wayland3Shm6GlobalE@MIRWAYLAND_1.2 1.7
 (arch=mips64el ppc64 s390x)_ZTVN3mir7wayland3ShmE@MIRWAYLAND_1.2 1.8.0+dfsg1
 _ZTVN3mir7wayland4Seat6GlobalE@MIRWAYLAND_1.2 1.7
 (arch=mips64el ppc64 s390x)_ZTVN3mir7wayland4SeatE@MIRWAYLAND_1.2 1.8.0+dfsg1
 _ZTVN3mir7wayland5Shell6GlobalE@MIRWAYLAND_1.2 1.7
 (arch=mips64el ppc64 s390x)_ZTVN3mir7wayland5ShellE@MIRWAYLAND_1.2 1.8.0+dfsg1
 (arch=mips64el ppc64 s390x)_ZTVN3mir7wayland5TouchE@MIRWAYLAND_1.2 1.8.0+dfsg1
 (arch=mips64el ppc64 s390x)_ZTVN3mir7wayland6BufferE@MIRWAYLAND_1.2 1.8.0+dfsg1
 _ZTVN3mir7wayland6GlobalE@MIRWAYLAND_1.2 1.7
 _ZTVN3mir7wayland6Output6GlobalE@MIRWAYLAND_1.2 1.7
 (arch=mips64el ppc64 s390x)_ZTVN3mir7wayland6OutputE@MIRWAYLAND_1.2 1.8.0+dfsg1
 (arch=mips64el ppc64 s390x)_ZTVN3mir7wayland6RegionE@MIRWAYLAND_1.2 1.8.0+dfsg1
 (arch=mips64el ppc64 s390x)_ZTVN3mir7wayland7PointerE@MIRWAYLAND_1.2 1.8.0+dfsg1
 (arch=mips64el ppc64 s390x)_ZTVN3mir7wayland7ShmPoolE@MIRWAYLAND_1.2 1.8.0+dfsg1
 (arch=mips64el ppc64 s390x)_ZTVN3mir7wayland7SurfaceE@MIRWAYLAND_1.2 1.8.0+dfsg1
 (arch=mips64el ppc64 s390x)_ZTVN3mir7wayland8CallbackE@MIRWAYLAND_1.2 1.8.0+dfsg1
 (arch=mips64el ppc64 s390x)_ZTVN3mir7wayland8KeyboardE@MIRWAYLAND_1.2 1.8.0+dfsg1
 (arch=mips64el ppc64 s390x)_ZTVN3mir7wayland8ResourceE@MIRWAYLAND_1.2 1.8.0+dfsg1
 (arch=mips64el ppc64 s390x)_ZTVN3mir7wayland8XdgPopupE@MIRWAYLAND_1.2 1.8.0+dfsg1
 (arch=mips64el ppc64 s390x)_ZTVN3mir7wayland9DataOfferE@MIRWAYLAND_1.2 1.8.0+dfsg1
 _ZTVN3mir7wayland9XdgWmBase6GlobalE@MIRWAYLAND_1.2 1.7
 (arch=mips64el ppc64 s390x)_ZTVN3mir7wayland9XdgWmBaseE@MIRWAYLAND_1.2 1.8.0+dfsg1
