# SymbolsHelper-Confirmed: 1.8.0+dfsg1 armel armhf hppa i386 m68k powerpc sh4 x32
libmircore.so.1 libmircore1 #MINVER#
* Build-Depends-Package: libmircore-dev
 MIR_CORE_0.25@MIR_CORE_0.25 1.7
 MIR_CORE_1.0@MIR_CORE_1.0 1.7
 MIR_CORE_1.1@MIR_CORE_1.1 1.7
 _ZN3mir11fatal_errorE@MIR_CORE_0.25 1.7
 (subst)_ZN3mir16AnonymousShmFileC1E{size_t}@MIR_CORE_1.0 1.7
 (subst)_ZN3mir16AnonymousShmFileC2E{size_t}@MIR_CORE_1.0 1.7
 _ZN3mir16AnonymousShmFileD0Ev@MIR_CORE_1.0 1.7
 _ZN3mir16AnonymousShmFileD1Ev@MIR_CORE_1.0 1.7
 _ZN3mir16AnonymousShmFileD2Ev@MIR_CORE_1.0 1.7
 _ZN3mir17fatal_error_abortEPKcz@MIR_CORE_0.25 1.7
 _ZN3mir18fatal_error_exceptEPKcz@MIR_CORE_0.25 1.7
 _ZN3mir25mir_depth_layer_get_indexE13MirDepthLayer@MIR_CORE_1.1 1.7
 _ZN3mir2FdC1ENS_10IntOwnedFdE@MIR_CORE_1.0 1.7
 _ZN3mir2FdC1EOS0_@MIR_CORE_1.0 1.7
 _ZN3mir2FdC1Ei@MIR_CORE_1.0 1.7
 _ZN3mir2FdC1Ev@MIR_CORE_1.0 1.7
 _ZN3mir2FdC2ENS_10IntOwnedFdE@MIR_CORE_1.0 1.7
 _ZN3mir2FdC2EOS0_@MIR_CORE_1.0 1.7
 _ZN3mir2FdC2Ei@MIR_CORE_1.0 1.7
 _ZN3mir2FdC2Ev@MIR_CORE_1.0 1.7
 _ZN3mir2FdaSES0_@MIR_CORE_1.0 1.7
 _ZN3mir8geometry10Rectangles3addERKNS0_9RectangleE@MIR_CORE_0.25 1.7
 _ZN3mir8geometry10Rectangles5clearEv@MIR_CORE_0.25 1.7
 _ZN3mir8geometry10Rectangles6removeERKNS0_9RectangleE@MIR_CORE_0.25 1.7
 _ZN3mir8geometry10RectanglesC1ERKSt16initializer_listINS0_9RectangleEE@MIR_CORE_0.25 1.7
 _ZN3mir8geometry10RectanglesC1Ev@MIR_CORE_0.25 1.7
 _ZN3mir8geometry10RectanglesC2ERKSt16initializer_listINS0_9RectangleEE@MIR_CORE_0.25 1.7
 _ZN3mir8geometry10RectanglesC2Ev@MIR_CORE_0.25 1.7
 _ZN3mir8geometrylsERSoRKNS0_10RectanglesE@MIR_CORE_0.25 1.7
 _ZN3mir8geometrylsERSoRKNS0_12DisplacementE@MIR_CORE_0.25 1.7
 _ZN3mir8geometrylsERSoRKNS0_4SizeE@MIR_CORE_0.25 1.7
 _ZN3mir8geometrylsERSoRKNS0_5PointE@MIR_CORE_0.25 1.7
 _ZN3mir8geometrylsERSoRKNS0_9RectangleE@MIR_CORE_0.25 1.7
 _ZNK3mir16AnonymousShmFile2fdEv@MIR_CORE_1.0 1.7
 _ZNK3mir16AnonymousShmFile8base_ptrEv@MIR_CORE_1.0 1.7
 _ZNK3mir2FdcviEv@MIR_CORE_1.0 1.7
 _ZNK3mir8geometry10Rectangles18bounding_rectangleEv@MIR_CORE_0.25 1.7
 _ZNK3mir8geometry10Rectangles3endEv@MIR_CORE_0.25 1.7
 _ZNK3mir8geometry10Rectangles4sizeEv@MIR_CORE_0.25 1.7
 _ZNK3mir8geometry10Rectangles5beginEv@MIR_CORE_0.25 1.7
 _ZNK3mir8geometry10Rectangles7confineERNS0_5PointE@MIR_CORE_0.25 1.7
 _ZNK3mir8geometry10RectangleseqERKS1_@MIR_CORE_0.25 1.7
 _ZNK3mir8geometry10RectanglesneERKS1_@MIR_CORE_0.25 1.7
 _ZNK3mir8geometry9Rectangle11bottom_leftEv@MIR_CORE_0.25 1.7
 _ZNK3mir8geometry9Rectangle12bottom_rightEv@MIR_CORE_0.25 1.7
 _ZNK3mir8geometry9Rectangle17intersection_withERKS1_@MIR_CORE_0.25 1.7
 _ZNK3mir8geometry9Rectangle8containsERKNS0_5PointE@MIR_CORE_0.25 1.7
 _ZNK3mir8geometry9Rectangle8containsERKS1_@MIR_CORE_0.25 1.7
 _ZNK3mir8geometry9Rectangle8overlapsERKS1_@MIR_CORE_0.25 1.7
 _ZNK3mir8geometry9Rectangle9top_rightEv@MIR_CORE_0.25 1.7
 _ZTIN3mir16AnonymousShmFileE@MIR_CORE_1.0 1.7
 _ZTIN3mir7ShmFileE@MIR_CORE_1.0 1.7
 _ZTVN3mir16AnonymousShmFileE@MIR_CORE_1.0 1.7
