# SymbolsHelper-Confirmed: 1.8.0+dfsg1 alpha amd64 arm64 armel armhf hppa i386 m68k mips64el mipsel powerpc ppc64 ppc64el riscv64 s390x sh4 sparc64 x32
libmirprotobuf.so.3 libmirprotobuf3 #MINVER#
 MIR_PROTOBUF_0.22@MIR_PROTOBUF_0.22 1.7
 MIR_PROTOBUF_0.26@MIR_PROTOBUF_0.26 1.7
 MIR_PROTOBUF_0.27@MIR_PROTOBUF_0.27 1.7
 MIR_PROTOBUF_3@MIR_PROTOBUF_3 1.7
 MIR_PROTOBUF_3v19@MIR_PROTOBUF_3v19 1.7
 MIR_PROTOBUF_FEDORA@MIR_PROTOBUF_FEDORA 1.7
 MIR_PROTOBUF_PROTOBUF_3.6.0@MIR_PROTOBUF_PROTOBUF_3.6.0 1.7
 MIR_PROTOBUF_UBSAN@MIR_PROTOBUF_UBSAN 1.7
 _ZN3mir8protobuf10Connection12InternalSwapEPS1_@MIR_PROTOBUF_FEDORA 1.7
 _ZN3mir8protobuf10Connection16default_instanceEv@MIR_PROTOBUF_3 1.7
 _ZN3mir8protobuf10Connection21CheckTypeAndMergeFromERKN6google8protobuf11MessageLiteE@MIR_PROTOBUF_3 1.7
 _ZN3mir8protobuf10Connection5ClearEv@MIR_PROTOBUF_3 1.7
 _ZN3mir8protobuf10Connection8CopyFromERKS1_@MIR_PROTOBUF_3 1.7
 _ZN3mir8protobuf10Connection9MergeFromERKS1_@MIR_PROTOBUF_3 1.7
 (arch=alpha amd64 arm64 armel armhf i386 m68k mips64el mipsel powerpc ppc64 ppc64el riscv64 s390x sh4 sparc64 x32)_ZN3mir8protobuf10ConnectionC1EPN6google8protobuf5ArenaE@MIR_PROTOBUF_3 1.8.0+dfsg1
 _ZN3mir8protobuf10ConnectionC1ERKS1_@MIR_PROTOBUF_3 1.7
 (arch=hppa)_ZN3mir8protobuf10ConnectionC1Ev@MIR_PROTOBUF_3 1.8.0+dfsg1
 (arch=alpha amd64 arm64 armel armhf i386 m68k mips64el mipsel powerpc ppc64 ppc64el riscv64 s390x sh4 sparc64 x32)_ZN3mir8protobuf10ConnectionC2EPN6google8protobuf5ArenaE@MIR_PROTOBUF_3 1.8.0+dfsg1
 _ZN3mir8protobuf10ConnectionC2ERKS1_@MIR_PROTOBUF_3 1.8.0+dfsg1
 (arch=hppa)_ZN3mir8protobuf10ConnectionC2Ev@MIR_PROTOBUF_3 1.8.0+dfsg1
 _ZN3mir8protobuf10ConnectionD0Ev@MIR_PROTOBUF_3 1.7
 _ZN3mir8protobuf10ConnectionD1Ev@MIR_PROTOBUF_3 1.7
 _ZN3mir8protobuf10ConnectionD2Ev@MIR_PROTOBUF_3 1.8.0+dfsg1
 _ZN3mir8protobuf10Screencast12InternalSwapEPS1_@MIR_PROTOBUF_FEDORA 1.7
 _ZN3mir8protobuf10Screencast16default_instanceEv@MIR_PROTOBUF_3 1.7
 _ZN3mir8protobuf10Screencast21CheckTypeAndMergeFromERKN6google8protobuf11MessageLiteE@MIR_PROTOBUF_3 1.7
 _ZN3mir8protobuf10Screencast5ClearEv@MIR_PROTOBUF_3 1.7
 _ZN3mir8protobuf10Screencast8CopyFromERKS1_@MIR_PROTOBUF_3 1.7
 _ZN3mir8protobuf10Screencast9MergeFromERKS1_@MIR_PROTOBUF_3 1.7
 (arch=alpha amd64 arm64 armel armhf i386 m68k mips64el mipsel powerpc ppc64 ppc64el riscv64 s390x sh4 sparc64 x32)_ZN3mir8protobuf10ScreencastC1EPN6google8protobuf5ArenaE@MIR_PROTOBUF_3 1.8.0+dfsg1
 _ZN3mir8protobuf10ScreencastC1ERKS1_@MIR_PROTOBUF_3 1.7
 (arch=hppa)_ZN3mir8protobuf10ScreencastC1Ev@MIR_PROTOBUF_3 1.8.0+dfsg1
 (arch=alpha amd64 arm64 armel armhf i386 m68k mips64el mipsel powerpc ppc64 ppc64el riscv64 s390x sh4 sparc64 x32)_ZN3mir8protobuf10ScreencastC2EPN6google8protobuf5ArenaE@MIR_PROTOBUF_3 1.8.0+dfsg1
 _ZN3mir8protobuf10ScreencastC2ERKS1_@MIR_PROTOBUF_3 1.8.0+dfsg1
 (arch=hppa)_ZN3mir8protobuf10ScreencastC2Ev@MIR_PROTOBUF_3 1.8.0+dfsg1
 _ZN3mir8protobuf10ScreencastD0Ev@MIR_PROTOBUF_3 1.7
 _ZN3mir8protobuf10ScreencastD1Ev@MIR_PROTOBUF_3 1.7
 _ZN3mir8protobuf10ScreencastD2Ev@MIR_PROTOBUF_3 1.8.0+dfsg1
 _ZN3mir8protobuf11DisplayCard12InternalSwapEPS1_@MIR_PROTOBUF_FEDORA 1.7
 _ZN3mir8protobuf11DisplayCard16default_instanceEv@MIR_PROTOBUF_3 1.7
 _ZN3mir8protobuf11DisplayCard21CheckTypeAndMergeFromERKN6google8protobuf11MessageLiteE@MIR_PROTOBUF_3 1.7
 _ZN3mir8protobuf11DisplayCard5ClearEv@MIR_PROTOBUF_3 1.7
 _ZN3mir8protobuf11DisplayCard8CopyFromERKS1_@MIR_PROTOBUF_3 1.7
 _ZN3mir8protobuf11DisplayCard9MergeFromERKS1_@MIR_PROTOBUF_3 1.7
 (arch=alpha amd64 arm64 armel armhf i386 m68k mips64el mipsel powerpc ppc64 ppc64el riscv64 s390x sh4 sparc64 x32)_ZN3mir8protobuf11DisplayCardC1EPN6google8protobuf5ArenaE@MIR_PROTOBUF_3 1.8.0+dfsg1
 _ZN3mir8protobuf11DisplayCardC1ERKS1_@MIR_PROTOBUF_3 1.7
 (arch=hppa)_ZN3mir8protobuf11DisplayCardC1Ev@MIR_PROTOBUF_3 1.8.0+dfsg1
 (arch=alpha amd64 arm64 armel armhf i386 m68k mips64el mipsel powerpc ppc64 ppc64el riscv64 s390x sh4 sparc64 x32)_ZN3mir8protobuf11DisplayCardC2EPN6google8protobuf5ArenaE@MIR_PROTOBUF_3 1.8.0+dfsg1
 _ZN3mir8protobuf11DisplayCardC2ERKS1_@MIR_PROTOBUF_3 1.8.0+dfsg1
 (arch=hppa)_ZN3mir8protobuf11DisplayCardC2Ev@MIR_PROTOBUF_3 1.8.0+dfsg1
 _ZN3mir8protobuf11DisplayCardD0Ev@MIR_PROTOBUF_3 1.7
 _ZN3mir8protobuf11DisplayCardD1Ev@MIR_PROTOBUF_3 1.7
 _ZN3mir8protobuf11DisplayCardD2Ev@MIR_PROTOBUF_3 1.8.0+dfsg1
 _ZN3mir8protobuf11DisplayMode12InternalSwapEPS1_@MIR_PROTOBUF_FEDORA 1.7
 _ZN3mir8protobuf11DisplayMode16default_instanceEv@MIR_PROTOBUF_3 1.7
 _ZN3mir8protobuf11DisplayMode21CheckTypeAndMergeFromERKN6google8protobuf11MessageLiteE@MIR_PROTOBUF_3 1.7
 _ZN3mir8protobuf11DisplayMode5ClearEv@MIR_PROTOBUF_3 1.7
 _ZN3mir8protobuf11DisplayMode8CopyFromERKS1_@MIR_PROTOBUF_3 1.7
 _ZN3mir8protobuf11DisplayMode9MergeFromERKS1_@MIR_PROTOBUF_3 1.7
 (arch=alpha amd64 arm64 armel armhf i386 m68k mips64el mipsel powerpc ppc64 ppc64el riscv64 s390x sh4 sparc64 x32)_ZN3mir8protobuf11DisplayModeC1EPN6google8protobuf5ArenaE@MIR_PROTOBUF_3 1.8.0+dfsg1
 _ZN3mir8protobuf11DisplayModeC1ERKS1_@MIR_PROTOBUF_3 1.7
 (arch=hppa)_ZN3mir8protobuf11DisplayModeC1Ev@MIR_PROTOBUF_3 1.8.0+dfsg1
 (arch=alpha amd64 arm64 armel armhf i386 m68k mips64el mipsel powerpc ppc64 ppc64el riscv64 s390x sh4 sparc64 x32)_ZN3mir8protobuf11DisplayModeC2EPN6google8protobuf5ArenaE@MIR_PROTOBUF_3 1.8.0+dfsg1
 _ZN3mir8protobuf11DisplayModeC2ERKS1_@MIR_PROTOBUF_3 1.8.0+dfsg1
 (arch=hppa)_ZN3mir8protobuf11DisplayModeC2Ev@MIR_PROTOBUF_3 1.8.0+dfsg1
 _ZN3mir8protobuf11DisplayModeD0Ev@MIR_PROTOBUF_3 1.7
 _ZN3mir8protobuf11DisplayModeD1Ev@MIR_PROTOBUF_3 1.7
 _ZN3mir8protobuf11DisplayModeD2Ev@MIR_PROTOBUF_3 1.8.0+dfsg1
 _ZN3mir8protobuf12BufferStream12InternalSwapEPS1_@MIR_PROTOBUF_FEDORA 1.7
 _ZN3mir8protobuf12BufferStream16default_instanceEv@MIR_PROTOBUF_3 1.7
 _ZN3mir8protobuf12BufferStream21CheckTypeAndMergeFromERKN6google8protobuf11MessageLiteE@MIR_PROTOBUF_3 1.7
 _ZN3mir8protobuf12BufferStream5ClearEv@MIR_PROTOBUF_3 1.7
 _ZN3mir8protobuf12BufferStream8CopyFromERKS1_@MIR_PROTOBUF_3 1.7
 _ZN3mir8protobuf12BufferStream9MergeFromERKS1_@MIR_PROTOBUF_3 1.7
 (arch=alpha amd64 arm64 armel armhf i386 m68k mips64el mipsel powerpc ppc64 ppc64el riscv64 s390x sh4 sparc64 x32)_ZN3mir8protobuf12BufferStreamC1EPN6google8protobuf5ArenaE@MIR_PROTOBUF_3 1.8.0+dfsg1
 _ZN3mir8protobuf12BufferStreamC1ERKS1_@MIR_PROTOBUF_3 1.7
 (arch=hppa)_ZN3mir8protobuf12BufferStreamC1Ev@MIR_PROTOBUF_3 1.8.0+dfsg1
 (arch=alpha amd64 arm64 armel armhf i386 m68k mips64el mipsel powerpc ppc64 ppc64el riscv64 s390x sh4 sparc64 x32)_ZN3mir8protobuf12BufferStreamC2EPN6google8protobuf5ArenaE@MIR_PROTOBUF_3 1.8.0+dfsg1
 _ZN3mir8protobuf12BufferStreamC2ERKS1_@MIR_PROTOBUF_3 1.8.0+dfsg1
 (arch=hppa)_ZN3mir8protobuf12BufferStreamC2Ev@MIR_PROTOBUF_3 1.8.0+dfsg1
 _ZN3mir8protobuf12BufferStreamD0Ev@MIR_PROTOBUF_3 1.7
 _ZN3mir8protobuf12BufferStreamD1Ev@MIR_PROTOBUF_3 1.7
 _ZN3mir8protobuf12BufferStreamD2Ev@MIR_PROTOBUF_3 1.8.0+dfsg1
 _ZN3mir8protobuf12InputDevices12InternalSwapEPS1_@MIR_PROTOBUF_FEDORA 1.7
 _ZN3mir8protobuf12InputDevices5ClearEv@MIR_PROTOBUF_0.26 1.7
 _ZN3mir8protobuf12InputDevices8CopyFromERKS1_@MIR_PROTOBUF_0.26 1.7
 _ZN3mir8protobuf12InputDevices9MergeFromERKS1_@MIR_PROTOBUF_0.26 1.7
 (arch=alpha amd64 arm64 armel armhf i386 m68k mips64el mipsel powerpc ppc64 ppc64el riscv64 s390x sh4 sparc64 x32)_ZN3mir8protobuf12InputDevicesC1EPN6google8protobuf5ArenaE@MIR_PROTOBUF_0.26 1.8.0+dfsg1
 _ZN3mir8protobuf12InputDevicesC1ERKS1_@MIR_PROTOBUF_0.26 1.7
 (arch=hppa)_ZN3mir8protobuf12InputDevicesC1Ev@MIR_PROTOBUF_0.26 1.8.0+dfsg1
 (arch=alpha amd64 arm64 armel armhf i386 m68k mips64el mipsel powerpc ppc64 ppc64el riscv64 s390x sh4 sparc64 x32)_ZN3mir8protobuf12InputDevicesC2EPN6google8protobuf5ArenaE@MIR_PROTOBUF_0.26 1.8.0+dfsg1
 _ZN3mir8protobuf12InputDevicesC2ERKS1_@MIR_PROTOBUF_0.26 1.8.0+dfsg1
 (arch=hppa)_ZN3mir8protobuf12InputDevicesC2Ev@MIR_PROTOBUF_0.26 1.8.0+dfsg1
 _ZN3mir8protobuf12InputDevicesD0Ev@MIR_PROTOBUF_0.26 1.7
 _ZN3mir8protobuf12InputDevicesD1Ev@MIR_PROTOBUF_0.26 1.7
 _ZN3mir8protobuf12InputDevicesD2Ev@MIR_PROTOBUF_0.26 1.8.0+dfsg1
 _ZN3mir8protobuf12ScreencastId12InternalSwapEPS1_@MIR_PROTOBUF_FEDORA 1.7
 _ZN3mir8protobuf12ScreencastId16default_instanceEv@MIR_PROTOBUF_3 1.7
 _ZN3mir8protobuf12ScreencastId21CheckTypeAndMergeFromERKN6google8protobuf11MessageLiteE@MIR_PROTOBUF_3 1.7
 _ZN3mir8protobuf12ScreencastId5ClearEv@MIR_PROTOBUF_3 1.7
 _ZN3mir8protobuf12ScreencastId8CopyFromERKS1_@MIR_PROTOBUF_3 1.7
 _ZN3mir8protobuf12ScreencastId9MergeFromERKS1_@MIR_PROTOBUF_3 1.7
 (arch=alpha amd64 arm64 armel armhf i386 m68k mips64el mipsel powerpc ppc64 ppc64el riscv64 s390x sh4 sparc64 x32)_ZN3mir8protobuf12ScreencastIdC1EPN6google8protobuf5ArenaE@MIR_PROTOBUF_3 1.8.0+dfsg1
 _ZN3mir8protobuf12ScreencastIdC1ERKS1_@MIR_PROTOBUF_3 1.7
 (arch=hppa)_ZN3mir8protobuf12ScreencastIdC1Ev@MIR_PROTOBUF_3 1.8.0+dfsg1
 (arch=alpha amd64 arm64 armel armhf i386 m68k mips64el mipsel powerpc ppc64 ppc64el riscv64 s390x sh4 sparc64 x32)_ZN3mir8protobuf12ScreencastIdC2EPN6google8protobuf5ArenaE@MIR_PROTOBUF_3 1.8.0+dfsg1
 _ZN3mir8protobuf12ScreencastIdC2ERKS1_@MIR_PROTOBUF_3 1.8.0+dfsg1
 (arch=hppa)_ZN3mir8protobuf12ScreencastIdC2Ev@MIR_PROTOBUF_3 1.8.0+dfsg1
 _ZN3mir8protobuf12ScreencastIdD0Ev@MIR_PROTOBUF_3 1.7
 _ZN3mir8protobuf12ScreencastIdD1Ev@MIR_PROTOBUF_3 1.7
 _ZN3mir8protobuf12ScreencastIdD2Ev@MIR_PROTOBUF_3 1.8.0+dfsg1
 _ZN3mir8protobuf13BufferRelease12InternalSwapEPS1_@MIR_PROTOBUF_FEDORA 1.7
 _ZN3mir8protobuf13BufferRelease16default_instanceEv@MIR_PROTOBUF_3 1.7
 _ZN3mir8protobuf13BufferRelease21CheckTypeAndMergeFromERKN6google8protobuf11MessageLiteE@MIR_PROTOBUF_3 1.7
 _ZN3mir8protobuf13BufferRelease5ClearEv@MIR_PROTOBUF_3 1.7
 _ZN3mir8protobuf13BufferRelease8CopyFromERKS1_@MIR_PROTOBUF_3 1.7
 _ZN3mir8protobuf13BufferRelease9MergeFromERKS1_@MIR_PROTOBUF_3 1.7
 (arch=alpha amd64 arm64 armel armhf i386 m68k mips64el mipsel powerpc ppc64 ppc64el riscv64 s390x sh4 sparc64 x32)_ZN3mir8protobuf13BufferReleaseC1EPN6google8protobuf5ArenaE@MIR_PROTOBUF_3 1.8.0+dfsg1
 _ZN3mir8protobuf13BufferReleaseC1ERKS1_@MIR_PROTOBUF_3 1.7
 (arch=hppa)_ZN3mir8protobuf13BufferReleaseC1Ev@MIR_PROTOBUF_3 1.8.0+dfsg1
 (arch=alpha amd64 arm64 armel armhf i386 m68k mips64el mipsel powerpc ppc64 ppc64el riscv64 s390x sh4 sparc64 x32)_ZN3mir8protobuf13BufferReleaseC2EPN6google8protobuf5ArenaE@MIR_PROTOBUF_3 1.8.0+dfsg1
 _ZN3mir8protobuf13BufferReleaseC2ERKS1_@MIR_PROTOBUF_3 1.8.0+dfsg1
 (arch=hppa)_ZN3mir8protobuf13BufferReleaseC2Ev@MIR_PROTOBUF_3 1.8.0+dfsg1
 _ZN3mir8protobuf13BufferReleaseD0Ev@MIR_PROTOBUF_3 1.7
 _ZN3mir8protobuf13BufferReleaseD1Ev@MIR_PROTOBUF_3 1.7
 _ZN3mir8protobuf13BufferReleaseD2Ev@MIR_PROTOBUF_3 1.8.0+dfsg1
 _ZN3mir8protobuf13BufferRequest12InternalSwapEPS1_@MIR_PROTOBUF_FEDORA 1.7
 _ZN3mir8protobuf13BufferRequest16default_instanceEv@MIR_PROTOBUF_3 1.7
 _ZN3mir8protobuf13BufferRequest21CheckTypeAndMergeFromERKN6google8protobuf11MessageLiteE@MIR_PROTOBUF_3 1.7
 _ZN3mir8protobuf13BufferRequest5ClearEv@MIR_PROTOBUF_3 1.7
 _ZN3mir8protobuf13BufferRequest8CopyFromERKS1_@MIR_PROTOBUF_3 1.7
 _ZN3mir8protobuf13BufferRequest9MergeFromERKS1_@MIR_PROTOBUF_3 1.7
 (arch=alpha amd64 arm64 armel armhf i386 m68k mips64el mipsel powerpc ppc64 ppc64el riscv64 s390x sh4 sparc64 x32)_ZN3mir8protobuf13BufferRequestC1EPN6google8protobuf5ArenaE@MIR_PROTOBUF_3 1.8.0+dfsg1
 _ZN3mir8protobuf13BufferRequestC1ERKS1_@MIR_PROTOBUF_3 1.7
 (arch=hppa)_ZN3mir8protobuf13BufferRequestC1Ev@MIR_PROTOBUF_3 1.8.0+dfsg1
 (arch=alpha amd64 arm64 armel armhf i386 m68k mips64el mipsel powerpc ppc64 ppc64el riscv64 s390x sh4 sparc64 x32)_ZN3mir8protobuf13BufferRequestC2EPN6google8protobuf5ArenaE@MIR_PROTOBUF_3 1.8.0+dfsg1
 _ZN3mir8protobuf13BufferRequestC2ERKS1_@MIR_PROTOBUF_3 1.8.0+dfsg1
 (arch=hppa)_ZN3mir8protobuf13BufferRequestC2Ev@MIR_PROTOBUF_3 1.8.0+dfsg1
 _ZN3mir8protobuf13BufferRequestD0Ev@MIR_PROTOBUF_3 1.7
 _ZN3mir8protobuf13BufferRequestD1Ev@MIR_PROTOBUF_3 1.7
 _ZN3mir8protobuf13BufferRequestD2Ev@MIR_PROTOBUF_3 1.8.0+dfsg1
 _ZN3mir8protobuf13CursorSetting12InternalSwapEPS1_@MIR_PROTOBUF_FEDORA 1.7
 _ZN3mir8protobuf13CursorSetting16default_instanceEv@MIR_PROTOBUF_3 1.7
 _ZN3mir8protobuf13CursorSetting21CheckTypeAndMergeFromERKN6google8protobuf11MessageLiteE@MIR_PROTOBUF_3 1.7
 _ZN3mir8protobuf13CursorSetting5ClearEv@MIR_PROTOBUF_3 1.7
 _ZN3mir8protobuf13CursorSetting8CopyFromERKS1_@MIR_PROTOBUF_3 1.7
 _ZN3mir8protobuf13CursorSetting9MergeFromERKS1_@MIR_PROTOBUF_3 1.7
 (arch=alpha amd64 arm64 armel armhf i386 m68k mips64el mipsel powerpc ppc64 ppc64el riscv64 s390x sh4 sparc64 x32)_ZN3mir8protobuf13CursorSettingC1EPN6google8protobuf5ArenaE@MIR_PROTOBUF_3 1.8.0+dfsg1
 _ZN3mir8protobuf13CursorSettingC1ERKS1_@MIR_PROTOBUF_3 1.7
 (arch=hppa)_ZN3mir8protobuf13CursorSettingC1Ev@MIR_PROTOBUF_3 1.8.0+dfsg1
 (arch=alpha amd64 arm64 armel armhf i386 m68k mips64el mipsel powerpc ppc64 ppc64el riscv64 s390x sh4 sparc64 x32)_ZN3mir8protobuf13CursorSettingC2EPN6google8protobuf5ArenaE@MIR_PROTOBUF_3 1.8.0+dfsg1
 _ZN3mir8protobuf13CursorSettingC2ERKS1_@MIR_PROTOBUF_3 1.8.0+dfsg1
 (arch=hppa)_ZN3mir8protobuf13CursorSettingC2Ev@MIR_PROTOBUF_3 1.8.0+dfsg1
 _ZN3mir8protobuf13CursorSettingD0Ev@MIR_PROTOBUF_3 1.7
 _ZN3mir8protobuf13CursorSettingD1Ev@MIR_PROTOBUF_3 1.7
 _ZN3mir8protobuf13CursorSettingD2Ev@MIR_PROTOBUF_3 1.8.0+dfsg1
 _ZN3mir8protobuf13DisplayOutput12InternalSwapEPS1_@MIR_PROTOBUF_FEDORA 1.7
 _ZN3mir8protobuf13DisplayOutput16default_instanceEv@MIR_PROTOBUF_3 1.7
 _ZN3mir8protobuf13DisplayOutput21CheckTypeAndMergeFromERKN6google8protobuf11MessageLiteE@MIR_PROTOBUF_3 1.7
 _ZN3mir8protobuf13DisplayOutput5ClearEv@MIR_PROTOBUF_3 1.7
 _ZN3mir8protobuf13DisplayOutput8CopyFromERKS1_@MIR_PROTOBUF_3 1.7
 _ZN3mir8protobuf13DisplayOutput9MergeFromERKS1_@MIR_PROTOBUF_3 1.7
 (arch=alpha amd64 arm64 armel armhf i386 m68k mips64el mipsel powerpc ppc64 ppc64el riscv64 s390x sh4 sparc64 x32)_ZN3mir8protobuf13DisplayOutputC1EPN6google8protobuf5ArenaE@MIR_PROTOBUF_3 1.8.0+dfsg1
 _ZN3mir8protobuf13DisplayOutputC1ERKS1_@MIR_PROTOBUF_3 1.7
 (arch=hppa)_ZN3mir8protobuf13DisplayOutputC1Ev@MIR_PROTOBUF_3 1.8.0+dfsg1
 (arch=alpha amd64 arm64 armel armhf i386 m68k mips64el mipsel powerpc ppc64 ppc64el riscv64 s390x sh4 sparc64 x32)_ZN3mir8protobuf13DisplayOutputC2EPN6google8protobuf5ArenaE@MIR_PROTOBUF_3 1.8.0+dfsg1
 _ZN3mir8protobuf13DisplayOutputC2ERKS1_@MIR_PROTOBUF_3 1.8.0+dfsg1
 (arch=hppa)_ZN3mir8protobuf13DisplayOutputC2Ev@MIR_PROTOBUF_3 1.8.0+dfsg1
 _ZN3mir8protobuf13DisplayOutputD0Ev@MIR_PROTOBUF_3 1.7
 _ZN3mir8protobuf13DisplayOutputD1Ev@MIR_PROTOBUF_3 1.7
 _ZN3mir8protobuf13DisplayOutputD2Ev@MIR_PROTOBUF_3 1.8.0+dfsg1
 _ZN3mir8protobuf13EventSequence12InternalSwapEPS1_@MIR_PROTOBUF_FEDORA 1.7
 _ZN3mir8protobuf13EventSequence16default_instanceEv@MIR_PROTOBUF_3 1.7
 _ZN3mir8protobuf13EventSequence21CheckTypeAndMergeFromERKN6google8protobuf11MessageLiteE@MIR_PROTOBUF_3 1.7
 _ZN3mir8protobuf13EventSequence5ClearEv@MIR_PROTOBUF_3 1.7
 _ZN3mir8protobuf13EventSequence8CopyFromERKS1_@MIR_PROTOBUF_3 1.7
 _ZN3mir8protobuf13EventSequence9MergeFromERKS1_@MIR_PROTOBUF_3 1.7
 (arch=alpha amd64 arm64 armel armhf i386 m68k mips64el mipsel powerpc ppc64 ppc64el riscv64 s390x sh4 sparc64 x32)_ZN3mir8protobuf13EventSequenceC1EPN6google8protobuf5ArenaE@MIR_PROTOBUF_3 1.8.0+dfsg1
 _ZN3mir8protobuf13EventSequenceC1ERKS1_@MIR_PROTOBUF_3 1.7
 (arch=hppa)_ZN3mir8protobuf13EventSequenceC1Ev@MIR_PROTOBUF_3 1.8.0+dfsg1
 (arch=alpha amd64 arm64 armel armhf i386 m68k mips64el mipsel powerpc ppc64 ppc64el riscv64 s390x sh4 sparc64 x32)_ZN3mir8protobuf13EventSequenceC2EPN6google8protobuf5ArenaE@MIR_PROTOBUF_3 1.8.0+dfsg1
 _ZN3mir8protobuf13EventSequenceC2ERKS1_@MIR_PROTOBUF_3 1.8.0+dfsg1
 (arch=hppa)_ZN3mir8protobuf13EventSequenceC2Ev@MIR_PROTOBUF_3 1.8.0+dfsg1
 _ZN3mir8protobuf13EventSequenceD0Ev@MIR_PROTOBUF_3 1.7
 _ZN3mir8protobuf13EventSequenceD1Ev@MIR_PROTOBUF_3 1.7
 _ZN3mir8protobuf13EventSequenceD2Ev@MIR_PROTOBUF_3 1.8.0+dfsg1
 _ZN3mir8protobuf13PromptSession12InternalSwapEPS1_@MIR_PROTOBUF_FEDORA 1.7
 _ZN3mir8protobuf13PromptSession16default_instanceEv@MIR_PROTOBUF_0.26 1.7
 _ZN3mir8protobuf13PromptSession21CheckTypeAndMergeFromERKN6google8protobuf11MessageLiteE@MIR_PROTOBUF_0.26 1.7
 _ZN3mir8protobuf13PromptSession5ClearEv@MIR_PROTOBUF_0.26 1.7
 _ZN3mir8protobuf13PromptSession8CopyFromERKS1_@MIR_PROTOBUF_0.26 1.7
 _ZN3mir8protobuf13PromptSession9MergeFromERKS1_@MIR_PROTOBUF_0.26 1.7
 (arch=alpha amd64 arm64 armel armhf i386 m68k mips64el mipsel powerpc ppc64 ppc64el riscv64 s390x sh4 sparc64 x32)_ZN3mir8protobuf13PromptSessionC1EPN6google8protobuf5ArenaE@MIR_PROTOBUF_0.26 1.8.0+dfsg1
 _ZN3mir8protobuf13PromptSessionC1ERKS1_@MIR_PROTOBUF_0.26 1.7
 (arch=hppa)_ZN3mir8protobuf13PromptSessionC1Ev@MIR_PROTOBUF_0.26 1.8.0+dfsg1
 (arch=alpha amd64 arm64 armel armhf i386 m68k mips64el mipsel powerpc ppc64 ppc64el riscv64 s390x sh4 sparc64 x32)_ZN3mir8protobuf13PromptSessionC2EPN6google8protobuf5ArenaE@MIR_PROTOBUF_0.26 1.8.0+dfsg1
 _ZN3mir8protobuf13PromptSessionC2ERKS1_@MIR_PROTOBUF_0.26 1.8.0+dfsg1
 (arch=hppa)_ZN3mir8protobuf13PromptSessionC2Ev@MIR_PROTOBUF_0.26 1.8.0+dfsg1
 _ZN3mir8protobuf13PromptSessionD0Ev@MIR_PROTOBUF_0.26 1.7
 _ZN3mir8protobuf13PromptSessionD1Ev@MIR_PROTOBUF_0.26 1.7
 _ZN3mir8protobuf13PromptSessionD2Ev@MIR_PROTOBUF_0.26 1.8.0+dfsg1
 _ZN3mir8protobuf14BufferStreamId12InternalSwapEPS1_@MIR_PROTOBUF_FEDORA 1.7
 _ZN3mir8protobuf14BufferStreamId16default_instanceEv@MIR_PROTOBUF_3 1.7
 _ZN3mir8protobuf14BufferStreamId21CheckTypeAndMergeFromERKN6google8protobuf11MessageLiteE@MIR_PROTOBUF_3 1.7
 _ZN3mir8protobuf14BufferStreamId5ClearEv@MIR_PROTOBUF_3 1.7
 _ZN3mir8protobuf14BufferStreamId8CopyFromERKS1_@MIR_PROTOBUF_3 1.7
 _ZN3mir8protobuf14BufferStreamId9MergeFromERKS1_@MIR_PROTOBUF_3 1.7
 (arch=alpha amd64 arm64 armel armhf i386 m68k mips64el mipsel powerpc ppc64 ppc64el riscv64 s390x sh4 sparc64 x32)_ZN3mir8protobuf14BufferStreamIdC1EPN6google8protobuf5ArenaE@MIR_PROTOBUF_3 1.8.0+dfsg1
 _ZN3mir8protobuf14BufferStreamIdC1ERKS1_@MIR_PROTOBUF_3 1.7
 (arch=hppa)_ZN3mir8protobuf14BufferStreamIdC1Ev@MIR_PROTOBUF_3 1.8.0+dfsg1
 (arch=alpha amd64 arm64 armel armhf i386 m68k mips64el mipsel powerpc ppc64 ppc64el riscv64 s390x sh4 sparc64 x32)_ZN3mir8protobuf14BufferStreamIdC2EPN6google8protobuf5ArenaE@MIR_PROTOBUF_3 1.8.0+dfsg1
 _ZN3mir8protobuf14BufferStreamIdC2ERKS1_@MIR_PROTOBUF_3 1.8.0+dfsg1
 (arch=hppa)_ZN3mir8protobuf14BufferStreamIdC2Ev@MIR_PROTOBUF_3 1.8.0+dfsg1
 _ZN3mir8protobuf14BufferStreamIdD0Ev@MIR_PROTOBUF_3 1.7
 _ZN3mir8protobuf14BufferStreamIdD1Ev@MIR_PROTOBUF_3 1.7
 _ZN3mir8protobuf14BufferStreamIdD2Ev@MIR_PROTOBUF_3 1.8.0+dfsg1
 _ZN3mir8protobuf14LifecycleEvent12InternalSwapEPS1_@MIR_PROTOBUF_FEDORA 1.7
 _ZN3mir8protobuf14LifecycleEvent16default_instanceEv@MIR_PROTOBUF_3 1.7
 _ZN3mir8protobuf14LifecycleEvent21CheckTypeAndMergeFromERKN6google8protobuf11MessageLiteE@MIR_PROTOBUF_3 1.7
 _ZN3mir8protobuf14LifecycleEvent5ClearEv@MIR_PROTOBUF_3 1.7
 _ZN3mir8protobuf14LifecycleEvent8CopyFromERKS1_@MIR_PROTOBUF_3 1.7
 _ZN3mir8protobuf14LifecycleEvent9MergeFromERKS1_@MIR_PROTOBUF_3 1.7
 (arch=alpha amd64 arm64 armel armhf i386 m68k mips64el mipsel powerpc ppc64 ppc64el riscv64 s390x sh4 sparc64 x32)_ZN3mir8protobuf14LifecycleEventC1EPN6google8protobuf5ArenaE@MIR_PROTOBUF_3 1.8.0+dfsg1
 _ZN3mir8protobuf14LifecycleEventC1ERKS1_@MIR_PROTOBUF_3 1.7
 (arch=hppa)_ZN3mir8protobuf14LifecycleEventC1Ev@MIR_PROTOBUF_3 1.8.0+dfsg1
 (arch=alpha amd64 arm64 armel armhf i386 m68k mips64el mipsel powerpc ppc64 ppc64el riscv64 s390x sh4 sparc64 x32)_ZN3mir8protobuf14LifecycleEventC2EPN6google8protobuf5ArenaE@MIR_PROTOBUF_3 1.8.0+dfsg1
 _ZN3mir8protobuf14LifecycleEventC2ERKS1_@MIR_PROTOBUF_3 1.8.0+dfsg1
 (arch=hppa)_ZN3mir8protobuf14LifecycleEventC2Ev@MIR_PROTOBUF_3 1.8.0+dfsg1
 _ZN3mir8protobuf14LifecycleEventD0Ev@MIR_PROTOBUF_3 1.7
 _ZN3mir8protobuf14LifecycleEventD1Ev@MIR_PROTOBUF_3 1.7
 _ZN3mir8protobuf14LifecycleEventD2Ev@MIR_PROTOBUF_3 1.8.0+dfsg1
 _ZN3mir8protobuf14SurfaceSetting12InternalSwapEPS1_@MIR_PROTOBUF_FEDORA 1.7
 _ZN3mir8protobuf14SurfaceSetting16default_instanceEv@MIR_PROTOBUF_3 1.7
 _ZN3mir8protobuf14SurfaceSetting21CheckTypeAndMergeFromERKN6google8protobuf11MessageLiteE@MIR_PROTOBUF_3 1.7
 _ZN3mir8protobuf14SurfaceSetting5ClearEv@MIR_PROTOBUF_3 1.7
 _ZN3mir8protobuf14SurfaceSetting8CopyFromERKS1_@MIR_PROTOBUF_3 1.7
 _ZN3mir8protobuf14SurfaceSetting9MergeFromERKS1_@MIR_PROTOBUF_3 1.7
 (arch=alpha amd64 arm64 armel armhf i386 m68k mips64el mipsel powerpc ppc64 ppc64el riscv64 s390x sh4 sparc64 x32)_ZN3mir8protobuf14SurfaceSettingC1EPN6google8protobuf5ArenaE@MIR_PROTOBUF_3 1.8.0+dfsg1
 _ZN3mir8protobuf14SurfaceSettingC1ERKS1_@MIR_PROTOBUF_3 1.7
 (arch=hppa)_ZN3mir8protobuf14SurfaceSettingC1Ev@MIR_PROTOBUF_3 1.8.0+dfsg1
 (arch=alpha amd64 arm64 armel armhf i386 m68k mips64el mipsel powerpc ppc64 ppc64el riscv64 s390x sh4 sparc64 x32)_ZN3mir8protobuf14SurfaceSettingC2EPN6google8protobuf5ArenaE@MIR_PROTOBUF_3 1.8.0+dfsg1
 _ZN3mir8protobuf14SurfaceSettingC2ERKS1_@MIR_PROTOBUF_3 1.8.0+dfsg1
 (arch=hppa)_ZN3mir8protobuf14SurfaceSettingC2Ev@MIR_PROTOBUF_3 1.8.0+dfsg1
 _ZN3mir8protobuf14SurfaceSettingD0Ev@MIR_PROTOBUF_3 1.7
 _ZN3mir8protobuf14SurfaceSettingD1Ev@MIR_PROTOBUF_3 1.7
 _ZN3mir8protobuf14SurfaceSettingD2Ev@MIR_PROTOBUF_3 1.8.0+dfsg1
 _ZN3mir8protobuf15InputDeviceInfo12InternalSwapEPS1_@MIR_PROTOBUF_FEDORA 1.7
 _ZN3mir8protobuf15InputDeviceInfo8CopyFromERKS1_@MIR_PROTOBUF_0.26 1.7
 _ZN3mir8protobuf15InputDeviceInfo9MergeFromERKS1_@MIR_PROTOBUF_0.26 1.7
 (arch=alpha amd64 arm64 armel armhf i386 m68k mips64el mipsel powerpc ppc64 ppc64el riscv64 s390x sh4 sparc64 x32)_ZN3mir8protobuf15InputDeviceInfoC1EPN6google8protobuf5ArenaE@MIR_PROTOBUF_3 1.8.0+dfsg1
 _ZN3mir8protobuf15InputDeviceInfoC1ERKS1_@MIR_PROTOBUF_3 1.7
 (arch=hppa)_ZN3mir8protobuf15InputDeviceInfoC1Ev@MIR_PROTOBUF_3 1.8.0+dfsg1
 (arch=alpha amd64 arm64 armel armhf i386 m68k mips64el mipsel powerpc ppc64 ppc64el riscv64 s390x sh4 sparc64 x32)_ZN3mir8protobuf15InputDeviceInfoC2EPN6google8protobuf5ArenaE@MIR_PROTOBUF_3 1.8.0+dfsg1
 _ZN3mir8protobuf15InputDeviceInfoC2ERKS1_@MIR_PROTOBUF_3 1.8.0+dfsg1
 (arch=hppa)_ZN3mir8protobuf15InputDeviceInfoC2Ev@MIR_PROTOBUF_3 1.8.0+dfsg1
 _ZN3mir8protobuf15InputDeviceInfoD0Ev@MIR_PROTOBUF_3 1.7
 _ZN3mir8protobuf15InputDeviceInfoD1Ev@MIR_PROTOBUF_3 1.7
 _ZN3mir8protobuf15InputDeviceInfoD2Ev@MIR_PROTOBUF_3 1.8.0+dfsg1
 _ZN3mir8protobuf15SocketFDRequest12InternalSwapEPS1_@MIR_PROTOBUF_FEDORA 1.7
 _ZN3mir8protobuf15SocketFDRequest16default_instanceEv@MIR_PROTOBUF_3 1.7
 _ZN3mir8protobuf15SocketFDRequest21CheckTypeAndMergeFromERKN6google8protobuf11MessageLiteE@MIR_PROTOBUF_3 1.7
 _ZN3mir8protobuf15SocketFDRequest5ClearEv@MIR_PROTOBUF_3 1.7
 _ZN3mir8protobuf15SocketFDRequest8CopyFromERKS1_@MIR_PROTOBUF_3 1.7
 _ZN3mir8protobuf15SocketFDRequest9MergeFromERKS1_@MIR_PROTOBUF_3 1.7
 (arch=alpha amd64 arm64 armel armhf i386 m68k mips64el mipsel powerpc ppc64 ppc64el riscv64 s390x sh4 sparc64 x32)_ZN3mir8protobuf15SocketFDRequestC1EPN6google8protobuf5ArenaE@MIR_PROTOBUF_3 1.8.0+dfsg1
 _ZN3mir8protobuf15SocketFDRequestC1ERKS1_@MIR_PROTOBUF_3 1.7
 (arch=hppa)_ZN3mir8protobuf15SocketFDRequestC1Ev@MIR_PROTOBUF_3 1.8.0+dfsg1
 (arch=alpha amd64 arm64 armel armhf i386 m68k mips64el mipsel powerpc ppc64 ppc64el riscv64 s390x sh4 sparc64 x32)_ZN3mir8protobuf15SocketFDRequestC2EPN6google8protobuf5ArenaE@MIR_PROTOBUF_3 1.8.0+dfsg1
 _ZN3mir8protobuf15SocketFDRequestC2ERKS1_@MIR_PROTOBUF_3 1.8.0+dfsg1
 (arch=hppa)_ZN3mir8protobuf15SocketFDRequestC2Ev@MIR_PROTOBUF_3 1.8.0+dfsg1
 _ZN3mir8protobuf15SocketFDRequestD0Ev@MIR_PROTOBUF_3 1.7
 _ZN3mir8protobuf15SocketFDRequestD1Ev@MIR_PROTOBUF_3 1.7
 _ZN3mir8protobuf15SocketFDRequestD2Ev@MIR_PROTOBUF_3 1.8.0+dfsg1
 _ZN3mir8protobuf15StructuredError12InternalSwapEPS1_@MIR_PROTOBUF_FEDORA 1.7
 (arch=alpha amd64 arm64 armel armhf i386 m68k mips64el mipsel powerpc ppc64 ppc64el riscv64 s390x sh4 sparc64 x32)_ZN3mir8protobuf15StructuredErrorC1EPN6google8protobuf5ArenaE@MIR_PROTOBUF_3 1.8.0+dfsg1
 _ZN3mir8protobuf15StructuredErrorC1ERKS1_@MIR_PROTOBUF_3 1.7
 (arch=hppa)_ZN3mir8protobuf15StructuredErrorC1Ev@MIR_PROTOBUF_3 1.8.0+dfsg1
 (arch=alpha amd64 arm64 armel armhf i386 m68k mips64el mipsel powerpc ppc64 ppc64el riscv64 s390x sh4 sparc64 x32)_ZN3mir8protobuf15StructuredErrorC2EPN6google8protobuf5ArenaE@MIR_PROTOBUF_3 1.8.0+dfsg1
 _ZN3mir8protobuf15StructuredErrorC2ERKS1_@MIR_PROTOBUF_3 1.8.0+dfsg1
 (arch=hppa)_ZN3mir8protobuf15StructuredErrorC2Ev@MIR_PROTOBUF_3 1.8.0+dfsg1
 _ZN3mir8protobuf16BufferAllocation12InternalSwapEPS1_@MIR_PROTOBUF_FEDORA 1.7
 _ZN3mir8protobuf16BufferAllocation16default_instanceEv@MIR_PROTOBUF_3 1.7
 _ZN3mir8protobuf16BufferAllocation21CheckTypeAndMergeFromERKN6google8protobuf11MessageLiteE@MIR_PROTOBUF_3 1.7
 _ZN3mir8protobuf16BufferAllocation5ClearEv@MIR_PROTOBUF_3 1.7
 _ZN3mir8protobuf16BufferAllocation8CopyFromERKS1_@MIR_PROTOBUF_3 1.7
 _ZN3mir8protobuf16BufferAllocation9MergeFromERKS1_@MIR_PROTOBUF_3 1.7
 (arch=alpha amd64 arm64 armel armhf i386 m68k mips64el mipsel powerpc ppc64 ppc64el riscv64 s390x sh4 sparc64 x32)_ZN3mir8protobuf16BufferAllocationC1EPN6google8protobuf5ArenaE@MIR_PROTOBUF_3 1.8.0+dfsg1
 _ZN3mir8protobuf16BufferAllocationC1ERKS1_@MIR_PROTOBUF_3 1.7
 (arch=hppa)_ZN3mir8protobuf16BufferAllocationC1Ev@MIR_PROTOBUF_3 1.8.0+dfsg1
 (arch=alpha amd64 arm64 armel armhf i386 m68k mips64el mipsel powerpc ppc64 ppc64el riscv64 s390x sh4 sparc64 x32)_ZN3mir8protobuf16BufferAllocationC2EPN6google8protobuf5ArenaE@MIR_PROTOBUF_3 1.8.0+dfsg1
 _ZN3mir8protobuf16BufferAllocationC2ERKS1_@MIR_PROTOBUF_3 1.8.0+dfsg1
 (arch=hppa)_ZN3mir8protobuf16BufferAllocationC2Ev@MIR_PROTOBUF_3 1.8.0+dfsg1
 _ZN3mir8protobuf16BufferAllocationD0Ev@MIR_PROTOBUF_3 1.7
 _ZN3mir8protobuf16BufferAllocationD1Ev@MIR_PROTOBUF_3 1.7
 _ZN3mir8protobuf16BufferAllocationD2Ev@MIR_PROTOBUF_3 1.8.0+dfsg1
 _ZN3mir8protobuf16ModuleProperties12InternalSwapEPS1_@MIR_PROTOBUF_FEDORA 1.7
 _ZN3mir8protobuf16ModuleProperties16default_instanceEv@MIR_PROTOBUF_3v19 1.7
 _ZN3mir8protobuf16ModuleProperties21CheckTypeAndMergeFromERKN6google8protobuf11MessageLiteE@MIR_PROTOBUF_3v19 1.7
 _ZN3mir8protobuf16ModuleProperties5ClearEv@MIR_PROTOBUF_3v19 1.7
 _ZN3mir8protobuf16ModuleProperties8CopyFromERKS1_@MIR_PROTOBUF_3v19 1.7
 _ZN3mir8protobuf16ModuleProperties9MergeFromERKS1_@MIR_PROTOBUF_3v19 1.7
 (arch=alpha amd64 arm64 armel armhf i386 m68k mips64el mipsel powerpc ppc64 ppc64el riscv64 s390x sh4 sparc64 x32)_ZN3mir8protobuf16ModulePropertiesC1EPN6google8protobuf5ArenaE@MIR_PROTOBUF_3v19 1.8.0+dfsg1
 _ZN3mir8protobuf16ModulePropertiesC1ERKS1_@MIR_PROTOBUF_3v19 1.7
 (arch=hppa)_ZN3mir8protobuf16ModulePropertiesC1Ev@MIR_PROTOBUF_3v19 1.8.0+dfsg1
 (arch=alpha amd64 arm64 armel armhf i386 m68k mips64el mipsel powerpc ppc64 ppc64el riscv64 s390x sh4 sparc64 x32)_ZN3mir8protobuf16ModulePropertiesC2EPN6google8protobuf5ArenaE@MIR_PROTOBUF_3v19 1.8.0+dfsg1
 _ZN3mir8protobuf16ModulePropertiesC2ERKS1_@MIR_PROTOBUF_3v19 1.8.0+dfsg1
 (arch=hppa)_ZN3mir8protobuf16ModulePropertiesC2Ev@MIR_PROTOBUF_3v19 1.8.0+dfsg1
 _ZN3mir8protobuf16ModulePropertiesD0Ev@MIR_PROTOBUF_3v19 1.7
 _ZN3mir8protobuf16ModulePropertiesD1Ev@MIR_PROTOBUF_3v19 1.7
 _ZN3mir8protobuf16ModulePropertiesD2Ev@MIR_PROTOBUF_3v19 1.8.0+dfsg1
 _ZN3mir8protobuf17ConnectParameters12InternalSwapEPS1_@MIR_PROTOBUF_FEDORA 1.7
 _ZN3mir8protobuf17ConnectParameters16default_instanceEv@MIR_PROTOBUF_3 1.7
 _ZN3mir8protobuf17ConnectParameters21CheckTypeAndMergeFromERKN6google8protobuf11MessageLiteE@MIR_PROTOBUF_3 1.7
 _ZN3mir8protobuf17ConnectParameters5ClearEv@MIR_PROTOBUF_3 1.7
 _ZN3mir8protobuf17ConnectParameters8CopyFromERKS1_@MIR_PROTOBUF_3 1.7
 _ZN3mir8protobuf17ConnectParameters9MergeFromERKS1_@MIR_PROTOBUF_3 1.7
 (arch=alpha amd64 arm64 armel armhf i386 m68k mips64el mipsel powerpc ppc64 ppc64el riscv64 s390x sh4 sparc64 x32)_ZN3mir8protobuf17ConnectParametersC1EPN6google8protobuf5ArenaE@MIR_PROTOBUF_3 1.8.0+dfsg1
 _ZN3mir8protobuf17ConnectParametersC1ERKS1_@MIR_PROTOBUF_3 1.7
 (arch=hppa)_ZN3mir8protobuf17ConnectParametersC1Ev@MIR_PROTOBUF_3 1.8.0+dfsg1
 (arch=alpha amd64 arm64 armel armhf i386 m68k mips64el mipsel powerpc ppc64 ppc64el riscv64 s390x sh4 sparc64 x32)_ZN3mir8protobuf17ConnectParametersC2EPN6google8protobuf5ArenaE@MIR_PROTOBUF_3 1.8.0+dfsg1
 _ZN3mir8protobuf17ConnectParametersC2ERKS1_@MIR_PROTOBUF_3 1.8.0+dfsg1
 (arch=hppa)_ZN3mir8protobuf17ConnectParametersC2Ev@MIR_PROTOBUF_3 1.8.0+dfsg1
 _ZN3mir8protobuf17ConnectParametersD0Ev@MIR_PROTOBUF_3 1.7
 _ZN3mir8protobuf17ConnectParametersD1Ev@MIR_PROTOBUF_3 1.7
 _ZN3mir8protobuf17ConnectParametersD2Ev@MIR_PROTOBUF_3 1.8.0+dfsg1
 _ZN3mir8protobuf17ScreencastRequest12InternalSwapEPS1_@MIR_PROTOBUF_FEDORA 1.7
 _ZN3mir8protobuf17ScreencastRequest16default_instanceEv@MIR_PROTOBUF_0.26 1.7
 _ZN3mir8protobuf17ScreencastRequest21CheckTypeAndMergeFromERKN6google8protobuf11MessageLiteE@MIR_PROTOBUF_0.26 1.7
 _ZN3mir8protobuf17ScreencastRequest5ClearEv@MIR_PROTOBUF_0.26 1.7
 _ZN3mir8protobuf17ScreencastRequest8CopyFromERKS1_@MIR_PROTOBUF_0.26 1.7
 _ZN3mir8protobuf17ScreencastRequest9MergeFromERKS1_@MIR_PROTOBUF_0.26 1.7
 (arch=alpha amd64 arm64 armel armhf i386 m68k mips64el mipsel powerpc ppc64 ppc64el riscv64 s390x sh4 sparc64 x32)_ZN3mir8protobuf17ScreencastRequestC1EPN6google8protobuf5ArenaE@MIR_PROTOBUF_0.26 1.8.0+dfsg1
 _ZN3mir8protobuf17ScreencastRequestC1ERKS1_@MIR_PROTOBUF_0.26 1.7
 (arch=hppa)_ZN3mir8protobuf17ScreencastRequestC1Ev@MIR_PROTOBUF_0.26 1.8.0+dfsg1
 (arch=alpha amd64 arm64 armel armhf i386 m68k mips64el mipsel powerpc ppc64 ppc64el riscv64 s390x sh4 sparc64 x32)_ZN3mir8protobuf17ScreencastRequestC2EPN6google8protobuf5ArenaE@MIR_PROTOBUF_0.26 1.8.0+dfsg1
 _ZN3mir8protobuf17ScreencastRequestC2ERKS1_@MIR_PROTOBUF_0.26 1.8.0+dfsg1
 (arch=hppa)_ZN3mir8protobuf17ScreencastRequestC2Ev@MIR_PROTOBUF_0.26 1.8.0+dfsg1
 _ZN3mir8protobuf17ScreencastRequestD0Ev@MIR_PROTOBUF_0.26 1.7
 _ZN3mir8protobuf17ScreencastRequestD1Ev@MIR_PROTOBUF_0.26 1.7
 _ZN3mir8protobuf17ScreencastRequestD2Ev@MIR_PROTOBUF_0.26 1.8.0+dfsg1
 _ZN3mir8protobuf17SurfaceParameters12InternalSwapEPS1_@MIR_PROTOBUF_FEDORA 1.7
 _ZN3mir8protobuf17SurfaceParameters16default_instanceEv@MIR_PROTOBUF_3 1.7
 _ZN3mir8protobuf17SurfaceParameters21CheckTypeAndMergeFromERKN6google8protobuf11MessageLiteE@MIR_PROTOBUF_3 1.7
 _ZN3mir8protobuf17SurfaceParameters5ClearEv@MIR_PROTOBUF_3 1.7
 _ZN3mir8protobuf17SurfaceParameters8CopyFromERKS1_@MIR_PROTOBUF_3 1.7
 _ZN3mir8protobuf17SurfaceParameters9MergeFromERKS1_@MIR_PROTOBUF_3 1.7
 (arch=alpha amd64 arm64 armel armhf i386 m68k mips64el mipsel powerpc ppc64 ppc64el riscv64 s390x sh4 sparc64 x32)_ZN3mir8protobuf17SurfaceParametersC1EPN6google8protobuf5ArenaE@MIR_PROTOBUF_3 1.8.0+dfsg1
 _ZN3mir8protobuf17SurfaceParametersC1ERKS1_@MIR_PROTOBUF_3 1.7
 (arch=hppa)_ZN3mir8protobuf17SurfaceParametersC1Ev@MIR_PROTOBUF_3 1.8.0+dfsg1
 (arch=alpha amd64 arm64 armel armhf i386 m68k mips64el mipsel powerpc ppc64 ppc64el riscv64 s390x sh4 sparc64 x32)_ZN3mir8protobuf17SurfaceParametersC2EPN6google8protobuf5ArenaE@MIR_PROTOBUF_3 1.8.0+dfsg1
 _ZN3mir8protobuf17SurfaceParametersC2ERKS1_@MIR_PROTOBUF_3 1.8.0+dfsg1
 (arch=hppa)_ZN3mir8protobuf17SurfaceParametersC2Ev@MIR_PROTOBUF_3 1.8.0+dfsg1
 _ZN3mir8protobuf17SurfaceParametersD0Ev@MIR_PROTOBUF_3 1.7
 _ZN3mir8protobuf17SurfaceParametersD1Ev@MIR_PROTOBUF_3 1.7
 _ZN3mir8protobuf17SurfaceParametersD2Ev@MIR_PROTOBUF_3 1.8.0+dfsg1
 _ZN3mir8protobuf18SurfaceAspectRatio12InternalSwapEPS1_@MIR_PROTOBUF_FEDORA 1.7
 _ZN3mir8protobuf18SurfaceAspectRatio16default_instanceEv@MIR_PROTOBUF_3 1.7
 _ZN3mir8protobuf18SurfaceAspectRatio21CheckTypeAndMergeFromERKN6google8protobuf11MessageLiteE@MIR_PROTOBUF_3 1.7
 _ZN3mir8protobuf18SurfaceAspectRatio5ClearEv@MIR_PROTOBUF_3 1.7
 _ZN3mir8protobuf18SurfaceAspectRatio8CopyFromERKS1_@MIR_PROTOBUF_3 1.7
 _ZN3mir8protobuf18SurfaceAspectRatio9MergeFromERKS1_@MIR_PROTOBUF_3 1.7
 (arch=alpha amd64 arm64 armel armhf i386 m68k mips64el mipsel powerpc ppc64 ppc64el riscv64 s390x sh4 sparc64 x32)_ZN3mir8protobuf18SurfaceAspectRatioC1EPN6google8protobuf5ArenaE@MIR_PROTOBUF_3 1.8.0+dfsg1
 _ZN3mir8protobuf18SurfaceAspectRatioC1ERKS1_@MIR_PROTOBUF_3 1.7
 (arch=hppa)_ZN3mir8protobuf18SurfaceAspectRatioC1Ev@MIR_PROTOBUF_3 1.8.0+dfsg1
 (arch=alpha amd64 arm64 armel armhf i386 m68k mips64el mipsel powerpc ppc64 ppc64el riscv64 s390x sh4 sparc64 x32)_ZN3mir8protobuf18SurfaceAspectRatioC2EPN6google8protobuf5ArenaE@MIR_PROTOBUF_3 1.8.0+dfsg1
 _ZN3mir8protobuf18SurfaceAspectRatioC2ERKS1_@MIR_PROTOBUF_3 1.8.0+dfsg1
 (arch=hppa)_ZN3mir8protobuf18SurfaceAspectRatioC2Ev@MIR_PROTOBUF_3 1.8.0+dfsg1
 _ZN3mir8protobuf18SurfaceAspectRatioD0Ev@MIR_PROTOBUF_3 1.7
 _ZN3mir8protobuf18SurfaceAspectRatioD1Ev@MIR_PROTOBUF_3 1.7
 _ZN3mir8protobuf18SurfaceAspectRatioD2Ev@MIR_PROTOBUF_3 1.8.0+dfsg1
 _ZN3mir8protobuf19PersistentSurfaceId12InternalSwapEPS1_@MIR_PROTOBUF_FEDORA 1.7
 _ZN3mir8protobuf19PersistentSurfaceId16default_instanceEv@MIR_PROTOBUF_3 1.7
 _ZN3mir8protobuf19PersistentSurfaceId21CheckTypeAndMergeFromERKN6google8protobuf11MessageLiteE@MIR_PROTOBUF_3 1.7
 _ZN3mir8protobuf19PersistentSurfaceId5ClearEv@MIR_PROTOBUF_3 1.7
 _ZN3mir8protobuf19PersistentSurfaceId8CopyFromERKS1_@MIR_PROTOBUF_3 1.7
 _ZN3mir8protobuf19PersistentSurfaceId9MergeFromERKS1_@MIR_PROTOBUF_3 1.7
 (arch=alpha amd64 arm64 armel armhf i386 m68k mips64el mipsel powerpc ppc64 ppc64el riscv64 s390x sh4 sparc64 x32)_ZN3mir8protobuf19PersistentSurfaceIdC1EPN6google8protobuf5ArenaE@MIR_PROTOBUF_3 1.8.0+dfsg1
 _ZN3mir8protobuf19PersistentSurfaceIdC1ERKS1_@MIR_PROTOBUF_3 1.7
 (arch=hppa)_ZN3mir8protobuf19PersistentSurfaceIdC1Ev@MIR_PROTOBUF_3 1.8.0+dfsg1
 (arch=alpha amd64 arm64 armel armhf i386 m68k mips64el mipsel powerpc ppc64 ppc64el riscv64 s390x sh4 sparc64 x32)_ZN3mir8protobuf19PersistentSurfaceIdC2EPN6google8protobuf5ArenaE@MIR_PROTOBUF_3 1.8.0+dfsg1
 _ZN3mir8protobuf19PersistentSurfaceIdC2ERKS1_@MIR_PROTOBUF_3 1.8.0+dfsg1
 (arch=hppa)_ZN3mir8protobuf19PersistentSurfaceIdC2Ev@MIR_PROTOBUF_3 1.8.0+dfsg1
 _ZN3mir8protobuf19PersistentSurfaceIdD0Ev@MIR_PROTOBUF_3 1.7
 _ZN3mir8protobuf19PersistentSurfaceIdD1Ev@MIR_PROTOBUF_3 1.7
 _ZN3mir8protobuf19PersistentSurfaceIdD2Ev@MIR_PROTOBUF_3 1.8.0+dfsg1
 _ZN3mir8protobuf19StreamConfiguration12InternalSwapEPS1_@MIR_PROTOBUF_FEDORA 1.7
 _ZN3mir8protobuf19StreamConfiguration16default_instanceEv@MIR_PROTOBUF_3 1.7
 _ZN3mir8protobuf19StreamConfiguration21CheckTypeAndMergeFromERKN6google8protobuf11MessageLiteE@MIR_PROTOBUF_3 1.7
 _ZN3mir8protobuf19StreamConfiguration5ClearEv@MIR_PROTOBUF_3 1.7
 _ZN3mir8protobuf19StreamConfiguration8CopyFromERKS1_@MIR_PROTOBUF_3 1.7
 _ZN3mir8protobuf19StreamConfiguration9MergeFromERKS1_@MIR_PROTOBUF_3 1.7
 (arch=alpha amd64 arm64 armel armhf i386 m68k mips64el mipsel powerpc ppc64 ppc64el riscv64 s390x sh4 sparc64 x32)_ZN3mir8protobuf19StreamConfigurationC1EPN6google8protobuf5ArenaE@MIR_PROTOBUF_3 1.8.0+dfsg1
 _ZN3mir8protobuf19StreamConfigurationC1ERKS1_@MIR_PROTOBUF_3 1.7
 (arch=hppa)_ZN3mir8protobuf19StreamConfigurationC1Ev@MIR_PROTOBUF_3 1.8.0+dfsg1
 (arch=alpha amd64 arm64 armel armhf i386 m68k mips64el mipsel powerpc ppc64 ppc64el riscv64 s390x sh4 sparc64 x32)_ZN3mir8protobuf19StreamConfigurationC2EPN6google8protobuf5ArenaE@MIR_PROTOBUF_3 1.8.0+dfsg1
 _ZN3mir8protobuf19StreamConfigurationC2ERKS1_@MIR_PROTOBUF_3 1.8.0+dfsg1
 (arch=hppa)_ZN3mir8protobuf19StreamConfigurationC2Ev@MIR_PROTOBUF_3 1.8.0+dfsg1
 _ZN3mir8protobuf19StreamConfigurationD0Ev@MIR_PROTOBUF_3 1.7
 _ZN3mir8protobuf19StreamConfigurationD1Ev@MIR_PROTOBUF_3 1.7
 _ZN3mir8protobuf19StreamConfigurationD2Ev@MIR_PROTOBUF_3 1.8.0+dfsg1
 _ZN3mir8protobuf20DisplayConfiguration12InternalSwapEPS1_@MIR_PROTOBUF_FEDORA 1.7
 _ZN3mir8protobuf20DisplayConfiguration16default_instanceEv@MIR_PROTOBUF_3 1.7
 _ZN3mir8protobuf20DisplayConfiguration21CheckTypeAndMergeFromERKN6google8protobuf11MessageLiteE@MIR_PROTOBUF_3 1.7
 _ZN3mir8protobuf20DisplayConfiguration5ClearEv@MIR_PROTOBUF_3 1.7
 _ZN3mir8protobuf20DisplayConfiguration8CopyFromERKS1_@MIR_PROTOBUF_3 1.7
 _ZN3mir8protobuf20DisplayConfiguration9MergeFromERKS1_@MIR_PROTOBUF_3 1.7
 (arch=alpha amd64 arm64 armel armhf i386 m68k mips64el mipsel powerpc ppc64 ppc64el riscv64 s390x sh4 sparc64 x32)_ZN3mir8protobuf20DisplayConfigurationC1EPN6google8protobuf5ArenaE@MIR_PROTOBUF_3 1.8.0+dfsg1
 _ZN3mir8protobuf20DisplayConfigurationC1ERKS1_@MIR_PROTOBUF_3 1.7
 (arch=hppa)_ZN3mir8protobuf20DisplayConfigurationC1Ev@MIR_PROTOBUF_3 1.8.0+dfsg1
 (arch=alpha amd64 arm64 armel armhf i386 m68k mips64el mipsel powerpc ppc64 ppc64el riscv64 s390x sh4 sparc64 x32)_ZN3mir8protobuf20DisplayConfigurationC2EPN6google8protobuf5ArenaE@MIR_PROTOBUF_3 1.8.0+dfsg1
 _ZN3mir8protobuf20DisplayConfigurationC2ERKS1_@MIR_PROTOBUF_3 1.8.0+dfsg1
 (arch=hppa)_ZN3mir8protobuf20DisplayConfigurationC2Ev@MIR_PROTOBUF_3 1.8.0+dfsg1
 _ZN3mir8protobuf20DisplayConfigurationD0Ev@MIR_PROTOBUF_3 1.7
 _ZN3mir8protobuf20DisplayConfigurationD1Ev@MIR_PROTOBUF_3 1.7
 _ZN3mir8protobuf20DisplayConfigurationD2Ev@MIR_PROTOBUF_3 1.8.0+dfsg1
 _ZN3mir8protobuf20PointerConfiguration12InternalSwapEPS1_@MIR_PROTOBUF_FEDORA 1.7
 _ZN3mir8protobuf20PointerConfiguration8CopyFromERKS1_@MIR_PROTOBUF_0.26 1.7
 (arch=alpha amd64 arm64 armel armhf i386 m68k mips64el mipsel powerpc ppc64 ppc64el riscv64 s390x sh4 sparc64 x32)_ZN3mir8protobuf20PointerConfigurationC1EPN6google8protobuf5ArenaE@MIR_PROTOBUF_0.26 1.8.0+dfsg1
 _ZN3mir8protobuf20PointerConfigurationC1ERKS1_@MIR_PROTOBUF_0.26 1.7
 (arch=hppa)_ZN3mir8protobuf20PointerConfigurationC1Ev@MIR_PROTOBUF_0.26 1.8.0+dfsg1
 (arch=alpha amd64 arm64 armel armhf i386 m68k mips64el mipsel powerpc ppc64 ppc64el riscv64 s390x sh4 sparc64 x32)_ZN3mir8protobuf20PointerConfigurationC2EPN6google8protobuf5ArenaE@MIR_PROTOBUF_0.26 1.8.0+dfsg1
 _ZN3mir8protobuf20PointerConfigurationC2ERKS1_@MIR_PROTOBUF_0.26 1.8.0+dfsg1
 (arch=hppa)_ZN3mir8protobuf20PointerConfigurationC2Ev@MIR_PROTOBUF_0.26 1.8.0+dfsg1
 _ZN3mir8protobuf20PointerConfigurationD0Ev@MIR_PROTOBUF_0.26 1.7
 _ZN3mir8protobuf20PointerConfigurationD1Ev@MIR_PROTOBUF_0.26 1.7
 _ZN3mir8protobuf20PointerConfigurationD2Ev@MIR_PROTOBUF_0.26 1.8.0+dfsg1
 _ZN3mir8protobuf20PreviewConfiguration12InternalSwapEPS1_@MIR_PROTOBUF_FEDORA 1.7
 _ZN3mir8protobuf20PreviewConfiguration16default_instanceEv@MIR_PROTOBUF_0.22 1.7
 _ZN3mir8protobuf20PreviewConfiguration21CheckTypeAndMergeFromERKN6google8protobuf11MessageLiteE@MIR_PROTOBUF_0.22 1.7
 _ZN3mir8protobuf20PreviewConfiguration5ClearEv@MIR_PROTOBUF_0.22 1.7
 _ZN3mir8protobuf20PreviewConfiguration8CopyFromERKS1_@MIR_PROTOBUF_0.22 1.7
 _ZN3mir8protobuf20PreviewConfiguration9MergeFromERKS1_@MIR_PROTOBUF_0.22 1.7
 (arch=alpha amd64 arm64 armel armhf i386 m68k mips64el mipsel powerpc ppc64 ppc64el riscv64 s390x sh4 sparc64 x32)_ZN3mir8protobuf20PreviewConfigurationC1EPN6google8protobuf5ArenaE@MIR_PROTOBUF_0.22 1.8.0+dfsg1
 _ZN3mir8protobuf20PreviewConfigurationC1ERKS1_@MIR_PROTOBUF_0.22 1.7
 (arch=hppa)_ZN3mir8protobuf20PreviewConfigurationC1Ev@MIR_PROTOBUF_0.22 1.8.0+dfsg1
 (arch=alpha amd64 arm64 armel armhf i386 m68k mips64el mipsel powerpc ppc64 ppc64el riscv64 s390x sh4 sparc64 x32)_ZN3mir8protobuf20PreviewConfigurationC2EPN6google8protobuf5ArenaE@MIR_PROTOBUF_0.22 1.8.0+dfsg1
 _ZN3mir8protobuf20PreviewConfigurationC2ERKS1_@MIR_PROTOBUF_0.22 1.8.0+dfsg1
 (arch=hppa)_ZN3mir8protobuf20PreviewConfigurationC2Ev@MIR_PROTOBUF_0.22 1.8.0+dfsg1
 _ZN3mir8protobuf20PreviewConfigurationD0Ev@MIR_PROTOBUF_0.22 1.7
 _ZN3mir8protobuf20PreviewConfigurationD1Ev@MIR_PROTOBUF_0.22 1.7
 _ZN3mir8protobuf20PreviewConfigurationD2Ev@MIR_PROTOBUF_0.22 1.8.0+dfsg1
 _ZN3mir8protobuf20RequestWithAuthority12InternalSwapEPS1_@MIR_PROTOBUF_FEDORA 1.7
 _ZN3mir8protobuf20RequestWithAuthority16default_instanceEv@MIR_PROTOBUF_0.27 1.7
 _ZN3mir8protobuf20RequestWithAuthority21CheckTypeAndMergeFromERKN6google8protobuf11MessageLiteE@MIR_PROTOBUF_0.27 1.7
 _ZN3mir8protobuf20RequestWithAuthority5ClearEv@MIR_PROTOBUF_0.27 1.7
 _ZN3mir8protobuf20RequestWithAuthority8CopyFromERKS1_@MIR_PROTOBUF_0.27 1.7
 _ZN3mir8protobuf20RequestWithAuthority9MergeFromERKS1_@MIR_PROTOBUF_0.27 1.7
 (arch=alpha amd64 arm64 armel armhf i386 m68k mips64el mipsel powerpc ppc64 ppc64el riscv64 s390x sh4 sparc64 x32)_ZN3mir8protobuf20RequestWithAuthorityC1EPN6google8protobuf5ArenaE@MIR_PROTOBUF_0.27 1.8.0+dfsg1
 _ZN3mir8protobuf20RequestWithAuthorityC1ERKS1_@MIR_PROTOBUF_0.27 1.7
 (arch=hppa)_ZN3mir8protobuf20RequestWithAuthorityC1Ev@MIR_PROTOBUF_0.27 1.8.0+dfsg1
 (arch=alpha amd64 arm64 armel armhf i386 m68k mips64el mipsel powerpc ppc64 ppc64el riscv64 s390x sh4 sparc64 x32)_ZN3mir8protobuf20RequestWithAuthorityC2EPN6google8protobuf5ArenaE@MIR_PROTOBUF_0.27 1.8.0+dfsg1
 _ZN3mir8protobuf20RequestWithAuthorityC2ERKS1_@MIR_PROTOBUF_0.27 1.8.0+dfsg1
 (arch=hppa)_ZN3mir8protobuf20RequestWithAuthorityC2Ev@MIR_PROTOBUF_0.27 1.8.0+dfsg1
 _ZN3mir8protobuf20RequestWithAuthorityD0Ev@MIR_PROTOBUF_0.27 1.7
 _ZN3mir8protobuf20RequestWithAuthorityD1Ev@MIR_PROTOBUF_0.27 1.7
 _ZN3mir8protobuf20RequestWithAuthorityD2Ev@MIR_PROTOBUF_0.27 1.8.0+dfsg1
 _ZN3mir8protobuf20ScreencastParameters12InternalSwapEPS1_@MIR_PROTOBUF_FEDORA 1.7
 _ZN3mir8protobuf20ScreencastParameters16default_instanceEv@MIR_PROTOBUF_3 1.7
 _ZN3mir8protobuf20ScreencastParameters21CheckTypeAndMergeFromERKN6google8protobuf11MessageLiteE@MIR_PROTOBUF_3 1.7
 _ZN3mir8protobuf20ScreencastParameters5ClearEv@MIR_PROTOBUF_3 1.7
 _ZN3mir8protobuf20ScreencastParameters8CopyFromERKS1_@MIR_PROTOBUF_3 1.7
 _ZN3mir8protobuf20ScreencastParameters9MergeFromERKS1_@MIR_PROTOBUF_3 1.7
 (arch=alpha amd64 arm64 armel armhf i386 m68k mips64el mipsel powerpc ppc64 ppc64el riscv64 s390x sh4 sparc64 x32)_ZN3mir8protobuf20ScreencastParametersC1EPN6google8protobuf5ArenaE@MIR_PROTOBUF_3 1.8.0+dfsg1
 _ZN3mir8protobuf20ScreencastParametersC1ERKS1_@MIR_PROTOBUF_3 1.7
 (arch=hppa)_ZN3mir8protobuf20ScreencastParametersC1Ev@MIR_PROTOBUF_3 1.8.0+dfsg1
 (arch=alpha amd64 arm64 armel armhf i386 m68k mips64el mipsel powerpc ppc64 ppc64el riscv64 s390x sh4 sparc64 x32)_ZN3mir8protobuf20ScreencastParametersC2EPN6google8protobuf5ArenaE@MIR_PROTOBUF_3 1.8.0+dfsg1
 _ZN3mir8protobuf20ScreencastParametersC2ERKS1_@MIR_PROTOBUF_3 1.8.0+dfsg1
 (arch=hppa)_ZN3mir8protobuf20ScreencastParametersC2Ev@MIR_PROTOBUF_3 1.8.0+dfsg1
 _ZN3mir8protobuf20ScreencastParametersD0Ev@MIR_PROTOBUF_3 1.7
 _ZN3mir8protobuf20ScreencastParametersD1Ev@MIR_PROTOBUF_3 1.7
 _ZN3mir8protobuf20ScreencastParametersD2Ev@MIR_PROTOBUF_3 1.8.0+dfsg1
 _ZN3mir8protobuf20SurfaceModifications12InternalSwapEPS1_@MIR_PROTOBUF_FEDORA 1.7
 _ZN3mir8protobuf20SurfaceModifications16default_instanceEv@MIR_PROTOBUF_3 1.7
 _ZN3mir8protobuf20SurfaceModifications21CheckTypeAndMergeFromERKN6google8protobuf11MessageLiteE@MIR_PROTOBUF_3 1.7
 _ZN3mir8protobuf20SurfaceModifications5ClearEv@MIR_PROTOBUF_3 1.7
 _ZN3mir8protobuf20SurfaceModifications8CopyFromERKS1_@MIR_PROTOBUF_3 1.7
 _ZN3mir8protobuf20SurfaceModifications9MergeFromERKS1_@MIR_PROTOBUF_3 1.7
 (arch=alpha amd64 arm64 armel armhf i386 m68k mips64el mipsel powerpc ppc64 ppc64el riscv64 s390x sh4 sparc64 x32)_ZN3mir8protobuf20SurfaceModificationsC1EPN6google8protobuf5ArenaE@MIR_PROTOBUF_3 1.8.0+dfsg1
 _ZN3mir8protobuf20SurfaceModificationsC1ERKS1_@MIR_PROTOBUF_3 1.7
 (arch=hppa)_ZN3mir8protobuf20SurfaceModificationsC1Ev@MIR_PROTOBUF_3 1.8.0+dfsg1
 (arch=alpha amd64 arm64 armel armhf i386 m68k mips64el mipsel powerpc ppc64 ppc64el riscv64 s390x sh4 sparc64 x32)_ZN3mir8protobuf20SurfaceModificationsC2EPN6google8protobuf5ArenaE@MIR_PROTOBUF_3 1.8.0+dfsg1
 _ZN3mir8protobuf20SurfaceModificationsC2ERKS1_@MIR_PROTOBUF_3 1.8.0+dfsg1
 (arch=hppa)_ZN3mir8protobuf20SurfaceModificationsC2Ev@MIR_PROTOBUF_3 1.8.0+dfsg1
 _ZN3mir8protobuf20SurfaceModificationsD0Ev@MIR_PROTOBUF_3 1.7
 _ZN3mir8protobuf20SurfaceModificationsD1Ev@MIR_PROTOBUF_3 1.7
 _ZN3mir8protobuf20SurfaceModificationsD2Ev@MIR_PROTOBUF_3 1.8.0+dfsg1
 _ZN3mir8protobuf20SurfaceSpecification12InternalSwapEPS1_@MIR_PROTOBUF_FEDORA 1.7
 _ZN3mir8protobuf20SurfaceSpecification16default_instanceEv@MIR_PROTOBUF_3 1.7
 _ZN3mir8protobuf20SurfaceSpecification21CheckTypeAndMergeFromERKN6google8protobuf11MessageLiteE@MIR_PROTOBUF_3 1.7
 _ZN3mir8protobuf20SurfaceSpecification5ClearEv@MIR_PROTOBUF_3 1.7
 _ZN3mir8protobuf20SurfaceSpecification8CopyFromERKS1_@MIR_PROTOBUF_3 1.7
 _ZN3mir8protobuf20SurfaceSpecification9MergeFromERKS1_@MIR_PROTOBUF_3 1.7
 (arch=alpha amd64 arm64 armel armhf i386 m68k mips64el mipsel powerpc ppc64 ppc64el riscv64 s390x sh4 sparc64 x32)_ZN3mir8protobuf20SurfaceSpecificationC1EPN6google8protobuf5ArenaE@MIR_PROTOBUF_3 1.8.0+dfsg1
 _ZN3mir8protobuf20SurfaceSpecificationC1ERKS1_@MIR_PROTOBUF_3 1.7
 (arch=hppa)_ZN3mir8protobuf20SurfaceSpecificationC1Ev@MIR_PROTOBUF_3 1.8.0+dfsg1
 (arch=alpha amd64 arm64 armel armhf i386 m68k mips64el mipsel powerpc ppc64 ppc64el riscv64 s390x sh4 sparc64 x32)_ZN3mir8protobuf20SurfaceSpecificationC2EPN6google8protobuf5ArenaE@MIR_PROTOBUF_3 1.8.0+dfsg1
 _ZN3mir8protobuf20SurfaceSpecificationC2ERKS1_@MIR_PROTOBUF_3 1.8.0+dfsg1
 (arch=hppa)_ZN3mir8protobuf20SurfaceSpecificationC2Ev@MIR_PROTOBUF_3 1.8.0+dfsg1
 _ZN3mir8protobuf20SurfaceSpecificationD0Ev@MIR_PROTOBUF_3 1.7
 _ZN3mir8protobuf20SurfaceSpecificationD1Ev@MIR_PROTOBUF_3 1.7
 _ZN3mir8protobuf20SurfaceSpecificationD2Ev@MIR_PROTOBUF_3 1.8.0+dfsg1
 _ZN3mir8protobuf21TouchpadConfiguration12InternalSwapEPS1_@MIR_PROTOBUF_FEDORA 1.7
 _ZN3mir8protobuf21TouchpadConfiguration8CopyFromERKS1_@MIR_PROTOBUF_0.26 1.7
 (arch=alpha amd64 arm64 armel armhf i386 m68k mips64el mipsel powerpc ppc64 ppc64el riscv64 s390x sh4 sparc64 x32)_ZN3mir8protobuf21TouchpadConfigurationC1EPN6google8protobuf5ArenaE@MIR_PROTOBUF_0.26 1.8.0+dfsg1
 _ZN3mir8protobuf21TouchpadConfigurationC1ERKS1_@MIR_PROTOBUF_0.26 1.7
 (arch=hppa)_ZN3mir8protobuf21TouchpadConfigurationC1Ev@MIR_PROTOBUF_0.26 1.8.0+dfsg1
 (arch=alpha amd64 arm64 armel armhf i386 m68k mips64el mipsel powerpc ppc64 ppc64el riscv64 s390x sh4 sparc64 x32)_ZN3mir8protobuf21TouchpadConfigurationC2EPN6google8protobuf5ArenaE@MIR_PROTOBUF_0.26 1.8.0+dfsg1
 _ZN3mir8protobuf21TouchpadConfigurationC2ERKS1_@MIR_PROTOBUF_0.26 1.8.0+dfsg1
 (arch=hppa)_ZN3mir8protobuf21TouchpadConfigurationC2Ev@MIR_PROTOBUF_0.26 1.8.0+dfsg1
 _ZN3mir8protobuf21TouchpadConfigurationD0Ev@MIR_PROTOBUF_0.26 1.7
 _ZN3mir8protobuf21TouchpadConfigurationD1Ev@MIR_PROTOBUF_0.26 1.7
 _ZN3mir8protobuf21TouchpadConfigurationD2Ev@MIR_PROTOBUF_0.26 1.8.0+dfsg1
 _ZN3mir8protobuf22BufferStreamParameters12InternalSwapEPS1_@MIR_PROTOBUF_FEDORA 1.7
 _ZN3mir8protobuf22BufferStreamParameters16default_instanceEv@MIR_PROTOBUF_3 1.7
 _ZN3mir8protobuf22BufferStreamParameters21CheckTypeAndMergeFromERKN6google8protobuf11MessageLiteE@MIR_PROTOBUF_3 1.7
 _ZN3mir8protobuf22BufferStreamParameters5ClearEv@MIR_PROTOBUF_3 1.7
 _ZN3mir8protobuf22BufferStreamParameters8CopyFromERKS1_@MIR_PROTOBUF_3 1.7
 _ZN3mir8protobuf22BufferStreamParameters9MergeFromERKS1_@MIR_PROTOBUF_3 1.7
 (arch=alpha amd64 arm64 armel armhf i386 m68k mips64el mipsel powerpc ppc64 ppc64el riscv64 s390x sh4 sparc64 x32)_ZN3mir8protobuf22BufferStreamParametersC1EPN6google8protobuf5ArenaE@MIR_PROTOBUF_3 1.8.0+dfsg1
 _ZN3mir8protobuf22BufferStreamParametersC1ERKS1_@MIR_PROTOBUF_3 1.7
 (arch=hppa)_ZN3mir8protobuf22BufferStreamParametersC1Ev@MIR_PROTOBUF_3 1.8.0+dfsg1
 (arch=alpha amd64 arm64 armel armhf i386 m68k mips64el mipsel powerpc ppc64 ppc64el riscv64 s390x sh4 sparc64 x32)_ZN3mir8protobuf22BufferStreamParametersC2EPN6google8protobuf5ArenaE@MIR_PROTOBUF_3 1.8.0+dfsg1
 _ZN3mir8protobuf22BufferStreamParametersC2ERKS1_@MIR_PROTOBUF_3 1.8.0+dfsg1
 (arch=hppa)_ZN3mir8protobuf22BufferStreamParametersC2Ev@MIR_PROTOBUF_3 1.8.0+dfsg1
 _ZN3mir8protobuf22BufferStreamParametersD0Ev@MIR_PROTOBUF_3 1.7
 _ZN3mir8protobuf22BufferStreamParametersD1Ev@MIR_PROTOBUF_3 1.7
 _ZN3mir8protobuf22BufferStreamParametersD2Ev@MIR_PROTOBUF_3 1.8.0+dfsg1
 _ZN3mir8protobuf23BufferOperation_IsValidEi@MIR_PROTOBUF_3 1.7
 _ZN3mir8protobuf23PromptSessionParameters12InternalSwapEPS1_@MIR_PROTOBUF_FEDORA 1.7
 _ZN3mir8protobuf23PromptSessionParameters16default_instanceEv@MIR_PROTOBUF_3 1.7
 _ZN3mir8protobuf23PromptSessionParameters21CheckTypeAndMergeFromERKN6google8protobuf11MessageLiteE@MIR_PROTOBUF_3 1.7
 _ZN3mir8protobuf23PromptSessionParameters5ClearEv@MIR_PROTOBUF_3 1.7
 _ZN3mir8protobuf23PromptSessionParameters8CopyFromERKS1_@MIR_PROTOBUF_3 1.7
 _ZN3mir8protobuf23PromptSessionParameters9MergeFromERKS1_@MIR_PROTOBUF_3 1.7
 (arch=alpha amd64 arm64 armel armhf i386 m68k mips64el mipsel powerpc ppc64 ppc64el riscv64 s390x sh4 sparc64 x32)_ZN3mir8protobuf23PromptSessionParametersC1EPN6google8protobuf5ArenaE@MIR_PROTOBUF_3 1.8.0+dfsg1
 _ZN3mir8protobuf23PromptSessionParametersC1ERKS1_@MIR_PROTOBUF_3 1.7
 (arch=hppa)_ZN3mir8protobuf23PromptSessionParametersC1Ev@MIR_PROTOBUF_3 1.8.0+dfsg1
 (arch=alpha amd64 arm64 armel armhf i386 m68k mips64el mipsel powerpc ppc64 ppc64el riscv64 s390x sh4 sparc64 x32)_ZN3mir8protobuf23PromptSessionParametersC2EPN6google8protobuf5ArenaE@MIR_PROTOBUF_3 1.8.0+dfsg1
 _ZN3mir8protobuf23PromptSessionParametersC2ERKS1_@MIR_PROTOBUF_3 1.8.0+dfsg1
 (arch=hppa)_ZN3mir8protobuf23PromptSessionParametersC2Ev@MIR_PROTOBUF_3 1.8.0+dfsg1
 _ZN3mir8protobuf23PromptSessionParametersD0Ev@MIR_PROTOBUF_3 1.7
 _ZN3mir8protobuf23PromptSessionParametersD1Ev@MIR_PROTOBUF_3 1.7
 _ZN3mir8protobuf23PromptSessionParametersD2Ev@MIR_PROTOBUF_3 1.8.0+dfsg1
 _ZN3mir8protobuf24PlatformOperationMessage12InternalSwapEPS1_@MIR_PROTOBUF_FEDORA 1.7
 _ZN3mir8protobuf24PlatformOperationMessage16default_instanceEv@MIR_PROTOBUF_3 1.7
 _ZN3mir8protobuf24PlatformOperationMessage21CheckTypeAndMergeFromERKN6google8protobuf11MessageLiteE@MIR_PROTOBUF_3 1.7
 _ZN3mir8protobuf24PlatformOperationMessage5ClearEv@MIR_PROTOBUF_3 1.7
 _ZN3mir8protobuf24PlatformOperationMessage8CopyFromERKS1_@MIR_PROTOBUF_3 1.7
 _ZN3mir8protobuf24PlatformOperationMessage9MergeFromERKS1_@MIR_PROTOBUF_3 1.7
 (arch=alpha amd64 arm64 armel armhf i386 m68k mips64el mipsel powerpc ppc64 ppc64el riscv64 s390x sh4 sparc64 x32)_ZN3mir8protobuf24PlatformOperationMessageC1EPN6google8protobuf5ArenaE@MIR_PROTOBUF_3 1.8.0+dfsg1
 _ZN3mir8protobuf24PlatformOperationMessageC1ERKS1_@MIR_PROTOBUF_3 1.7
 (arch=hppa)_ZN3mir8protobuf24PlatformOperationMessageC1Ev@MIR_PROTOBUF_3 1.8.0+dfsg1
 (arch=alpha amd64 arm64 armel armhf i386 m68k mips64el mipsel powerpc ppc64 ppc64el riscv64 s390x sh4 sparc64 x32)_ZN3mir8protobuf24PlatformOperationMessageC2EPN6google8protobuf5ArenaE@MIR_PROTOBUF_3 1.8.0+dfsg1
 _ZN3mir8protobuf24PlatformOperationMessageC2ERKS1_@MIR_PROTOBUF_3 1.8.0+dfsg1
 (arch=hppa)_ZN3mir8protobuf24PlatformOperationMessageC2Ev@MIR_PROTOBUF_3 1.8.0+dfsg1
 _ZN3mir8protobuf24PlatformOperationMessageD0Ev@MIR_PROTOBUF_3 1.7
 _ZN3mir8protobuf24PlatformOperationMessageD1Ev@MIR_PROTOBUF_3 1.7
 _ZN3mir8protobuf24PlatformOperationMessageD2Ev@MIR_PROTOBUF_3 1.8.0+dfsg1
 _ZN3mir8protobuf24RequestOperation_IsValidEi@MIR_PROTOBUF_0.27 1.7
 _ZN3mir8protobuf25InputConfigurationRequest12InternalSwapEPS1_@MIR_PROTOBUF_FEDORA 1.7
 (arch=alpha amd64 arm64 armel armhf i386 m68k mips64el mipsel powerpc ppc64 ppc64el riscv64 s390x sh4 sparc64 x32)_ZN3mir8protobuf25InputConfigurationRequestC1EPN6google8protobuf5ArenaE@MIR_PROTOBUF_0.26 1.8.0+dfsg1
 _ZN3mir8protobuf25InputConfigurationRequestC1ERKS1_@MIR_PROTOBUF_0.26 1.7
 (arch=hppa)_ZN3mir8protobuf25InputConfigurationRequestC1Ev@MIR_PROTOBUF_0.26 1.8.0+dfsg1
 (arch=alpha amd64 arm64 armel armhf i386 m68k mips64el mipsel powerpc ppc64 ppc64el riscv64 s390x sh4 sparc64 x32)_ZN3mir8protobuf25InputConfigurationRequestC2EPN6google8protobuf5ArenaE@MIR_PROTOBUF_0.26 1.8.0+dfsg1
 _ZN3mir8protobuf25InputConfigurationRequestC2ERKS1_@MIR_PROTOBUF_0.26 1.8.0+dfsg1
 (arch=hppa)_ZN3mir8protobuf25InputConfigurationRequestC2Ev@MIR_PROTOBUF_0.26 1.8.0+dfsg1
 _ZN3mir8protobuf25InputConfigurationRequestD0Ev@MIR_PROTOBUF_0.26 1.7
 _ZN3mir8protobuf25InputConfigurationRequestD1Ev@MIR_PROTOBUF_0.26 1.7
 _ZN3mir8protobuf25InputConfigurationRequestD2Ev@MIR_PROTOBUF_0.26 1.8.0+dfsg1
 _ZN3mir8protobuf25_Buffer_default_instance_E@MIR_PROTOBUF_FEDORA 1.7
 _ZN3mir8protobuf25_Cookie_default_instance_E@MIR_PROTOBUF_FEDORA 1.7
 _ZN3mir8protobuf27_Platform_default_instance_E@MIR_PROTOBUF_FEDORA 1.7
 _ZN3mir8protobuf28CoordinateTranslationRequest12InternalSwapEPS1_@MIR_PROTOBUF_FEDORA 1.7
 _ZN3mir8protobuf28CoordinateTranslationRequest16default_instanceEv@MIR_PROTOBUF_3 1.7
 _ZN3mir8protobuf28CoordinateTranslationRequest21CheckTypeAndMergeFromERKN6google8protobuf11MessageLiteE@MIR_PROTOBUF_3 1.7
 _ZN3mir8protobuf28CoordinateTranslationRequest5ClearEv@MIR_PROTOBUF_3 1.7
 _ZN3mir8protobuf28CoordinateTranslationRequest8CopyFromERKS1_@MIR_PROTOBUF_3 1.7
 _ZN3mir8protobuf28CoordinateTranslationRequest9MergeFromERKS1_@MIR_PROTOBUF_3 1.7
 (arch=alpha amd64 arm64 armel armhf i386 m68k mips64el mipsel powerpc ppc64 ppc64el riscv64 s390x sh4 sparc64 x32)_ZN3mir8protobuf28CoordinateTranslationRequestC1EPN6google8protobuf5ArenaE@MIR_PROTOBUF_3 1.8.0+dfsg1
 _ZN3mir8protobuf28CoordinateTranslationRequestC1ERKS1_@MIR_PROTOBUF_3 1.7
 (arch=hppa)_ZN3mir8protobuf28CoordinateTranslationRequestC1Ev@MIR_PROTOBUF_3 1.8.0+dfsg1
 (arch=alpha amd64 arm64 armel armhf i386 m68k mips64el mipsel powerpc ppc64 ppc64el riscv64 s390x sh4 sparc64 x32)_ZN3mir8protobuf28CoordinateTranslationRequestC2EPN6google8protobuf5ArenaE@MIR_PROTOBUF_3 1.8.0+dfsg1
 _ZN3mir8protobuf28CoordinateTranslationRequestC2ERKS1_@MIR_PROTOBUF_3 1.8.0+dfsg1
 (arch=hppa)_ZN3mir8protobuf28CoordinateTranslationRequestC2Ev@MIR_PROTOBUF_3 1.8.0+dfsg1
 _ZN3mir8protobuf28CoordinateTranslationRequestD0Ev@MIR_PROTOBUF_3 1.7
 _ZN3mir8protobuf28CoordinateTranslationRequestD1Ev@MIR_PROTOBUF_3 1.7
 _ZN3mir8protobuf28CoordinateTranslationRequestD2Ev@MIR_PROTOBUF_3 1.8.0+dfsg1
 _ZN3mir8protobuf28_PingEvent_default_instance_E@MIR_PROTOBUF_FEDORA 1.7
 _ZN3mir8protobuf28_Rectangle_default_instance_E@MIR_PROTOBUF_FEDORA 1.7
 _ZN3mir8protobuf28_SurfaceId_default_instance_E@MIR_PROTOBUF_FEDORA 1.7
 _ZN3mir8protobuf29CoordinateTranslationResponse12InternalSwapEPS1_@MIR_PROTOBUF_FEDORA 1.7
 _ZN3mir8protobuf29CoordinateTranslationResponse16default_instanceEv@MIR_PROTOBUF_3 1.7
 _ZN3mir8protobuf29CoordinateTranslationResponse21CheckTypeAndMergeFromERKN6google8protobuf11MessageLiteE@MIR_PROTOBUF_3 1.7
 _ZN3mir8protobuf29CoordinateTranslationResponse5ClearEv@MIR_PROTOBUF_3 1.7
 _ZN3mir8protobuf29CoordinateTranslationResponse8CopyFromERKS1_@MIR_PROTOBUF_3 1.7
 _ZN3mir8protobuf29CoordinateTranslationResponse9MergeFromERKS1_@MIR_PROTOBUF_3 1.7
 (arch=alpha amd64 arm64 armel armhf i386 m68k mips64el mipsel powerpc ppc64 ppc64el riscv64 s390x sh4 sparc64 x32)_ZN3mir8protobuf29CoordinateTranslationResponseC1EPN6google8protobuf5ArenaE@MIR_PROTOBUF_3 1.8.0+dfsg1
 _ZN3mir8protobuf29CoordinateTranslationResponseC1ERKS1_@MIR_PROTOBUF_3 1.7
 (arch=hppa)_ZN3mir8protobuf29CoordinateTranslationResponseC1Ev@MIR_PROTOBUF_3 1.8.0+dfsg1
 (arch=alpha amd64 arm64 armel armhf i386 m68k mips64el mipsel powerpc ppc64 ppc64el riscv64 s390x sh4 sparc64 x32)_ZN3mir8protobuf29CoordinateTranslationResponseC2EPN6google8protobuf5ArenaE@MIR_PROTOBUF_3 1.8.0+dfsg1
 _ZN3mir8protobuf29CoordinateTranslationResponseC2ERKS1_@MIR_PROTOBUF_3 1.8.0+dfsg1
 (arch=hppa)_ZN3mir8protobuf29CoordinateTranslationResponseC2Ev@MIR_PROTOBUF_3 1.8.0+dfsg1
 _ZN3mir8protobuf29CoordinateTranslationResponseD0Ev@MIR_PROTOBUF_3 1.7
 _ZN3mir8protobuf29CoordinateTranslationResponseD1Ev@MIR_PROTOBUF_3 1.7
 _ZN3mir8protobuf29CoordinateTranslationResponseD2Ev@MIR_PROTOBUF_3 1.8.0+dfsg1
 _ZN3mir8protobuf31_BufferStream_default_instance_E@MIR_PROTOBUF_FEDORA 1.7
 _ZN3mir8protobuf31_ScreencastId_default_instance_E@MIR_PROTOBUF_FEDORA 1.7
 _ZN3mir8protobuf32_BufferRequest_default_instance_E@MIR_PROTOBUF_FEDORA 1.7
 _ZN3mir8protobuf33_BufferStreamId_default_instance_E@MIR_PROTOBUF_FEDORA 1.7
 _ZN3mir8protobuf33_LifecycleEvent_default_instance_E@MIR_PROTOBUF_FEDORA 1.7
 _ZN3mir8protobuf34_StructuredError_default_instance_E@MIR_PROTOBUF_FEDORA 1.7
 _ZN3mir8protobuf35_ModuleProperties_default_instance_E@MIR_PROTOBUF_FEDORA 1.7
 _ZN3mir8protobuf37_SurfaceAspectRatio_default_instance_E@MIR_PROTOBUF_FEDORA 1.7
 _ZN3mir8protobuf38_PersistentSurfaceId_default_instance_E@MIR_PROTOBUF_FEDORA 1.7
 _ZN3mir8protobuf39_DisplayConfiguration_default_instance_E@MIR_PROTOBUF_FEDORA 1.7
 _ZN3mir8protobuf39_SurfaceSpecification_default_instance_E@MIR_PROTOBUF_FEDORA 1.7
 _ZN3mir8protobuf4Void12InternalSwapEPS1_@MIR_PROTOBUF_FEDORA 1.7
 _ZN3mir8protobuf4Void16default_instanceEv@MIR_PROTOBUF_3 1.7
 _ZN3mir8protobuf4Void21CheckTypeAndMergeFromERKN6google8protobuf11MessageLiteE@MIR_PROTOBUF_3 1.7
 _ZN3mir8protobuf4Void5ClearEv@MIR_PROTOBUF_3 1.7
 _ZN3mir8protobuf4Void8CopyFromERKS1_@MIR_PROTOBUF_3 1.7
 _ZN3mir8protobuf4Void9MergeFromERKS1_@MIR_PROTOBUF_3 1.7
 (arch=alpha amd64 arm64 armel armhf i386 m68k mips64el mipsel powerpc ppc64 ppc64el riscv64 s390x sh4 sparc64 x32)_ZN3mir8protobuf4VoidC1EPN6google8protobuf5ArenaE@MIR_PROTOBUF_3 1.8.0+dfsg1
 _ZN3mir8protobuf4VoidC1ERKS1_@MIR_PROTOBUF_3 1.7
 (arch=hppa)_ZN3mir8protobuf4VoidC1Ev@MIR_PROTOBUF_3 1.8.0+dfsg1
 (arch=alpha amd64 arm64 armel armhf i386 m68k mips64el mipsel powerpc ppc64 ppc64el riscv64 s390x sh4 sparc64 x32)_ZN3mir8protobuf4VoidC2EPN6google8protobuf5ArenaE@MIR_PROTOBUF_3 1.8.0+dfsg1
 _ZN3mir8protobuf4VoidC2ERKS1_@MIR_PROTOBUF_3 1.8.0+dfsg1
 (arch=hppa)_ZN3mir8protobuf4VoidC2Ev@MIR_PROTOBUF_3 1.8.0+dfsg1
 _ZN3mir8protobuf4VoidD0Ev@MIR_PROTOBUF_3 1.7
 _ZN3mir8protobuf4VoidD1Ev@MIR_PROTOBUF_3 1.7
 _ZN3mir8protobuf4VoidD2Ev@MIR_PROTOBUF_3 1.8.0+dfsg1
 _ZN3mir8protobuf4wire10Invocation12InternalSwapEPS2_@MIR_PROTOBUF_FEDORA 1.7
 _ZN3mir8protobuf4wire10Invocation16default_instanceEv@MIR_PROTOBUF_3 1.7
 _ZN3mir8protobuf4wire10Invocation21CheckTypeAndMergeFromERKN6google8protobuf11MessageLiteE@MIR_PROTOBUF_3 1.7
 _ZN3mir8protobuf4wire10Invocation5ClearEv@MIR_PROTOBUF_3 1.7
 _ZN3mir8protobuf4wire10Invocation8CopyFromERKS2_@MIR_PROTOBUF_3 1.7
 _ZN3mir8protobuf4wire10Invocation9MergeFromERKS2_@MIR_PROTOBUF_3 1.7
 (arch=alpha amd64 arm64 armel armhf i386 m68k mips64el mipsel powerpc ppc64 ppc64el riscv64 s390x sh4 sparc64 x32)_ZN3mir8protobuf4wire10InvocationC1EPN6google8protobuf5ArenaE@MIR_PROTOBUF_3 1.8.0+dfsg1
 _ZN3mir8protobuf4wire10InvocationC1ERKS2_@MIR_PROTOBUF_3 1.7
 (arch=hppa)_ZN3mir8protobuf4wire10InvocationC1Ev@MIR_PROTOBUF_3 1.8.0+dfsg1
 (arch=alpha amd64 arm64 armel armhf i386 m68k mips64el mipsel powerpc ppc64 ppc64el riscv64 s390x sh4 sparc64 x32)_ZN3mir8protobuf4wire10InvocationC2EPN6google8protobuf5ArenaE@MIR_PROTOBUF_3 1.8.0+dfsg1
 _ZN3mir8protobuf4wire10InvocationC2ERKS2_@MIR_PROTOBUF_3 1.8.0+dfsg1
 (arch=hppa)_ZN3mir8protobuf4wire10InvocationC2Ev@MIR_PROTOBUF_3 1.8.0+dfsg1
 _ZN3mir8protobuf4wire10InvocationD0Ev@MIR_PROTOBUF_3 1.7
 _ZN3mir8protobuf4wire10InvocationD1Ev@MIR_PROTOBUF_3 1.7
 _ZN3mir8protobuf4wire10InvocationD2Ev@MIR_PROTOBUF_3 1.8.0+dfsg1
 _ZN3mir8protobuf4wire6Result12InternalSwapEPS2_@MIR_PROTOBUF_FEDORA 1.7
 _ZN3mir8protobuf4wire6Result16default_instanceEv@MIR_PROTOBUF_3 1.7
 _ZN3mir8protobuf4wire6Result21CheckTypeAndMergeFromERKN6google8protobuf11MessageLiteE@MIR_PROTOBUF_3 1.7
 _ZN3mir8protobuf4wire6Result5ClearEv@MIR_PROTOBUF_3 1.7
 _ZN3mir8protobuf4wire6Result8CopyFromERKS2_@MIR_PROTOBUF_3 1.7
 _ZN3mir8protobuf4wire6Result9MergeFromERKS2_@MIR_PROTOBUF_3 1.7
 (arch=alpha amd64 arm64 armel armhf i386 m68k mips64el mipsel powerpc ppc64 ppc64el riscv64 s390x sh4 sparc64 x32)_ZN3mir8protobuf4wire6ResultC1EPN6google8protobuf5ArenaE@MIR_PROTOBUF_3 1.8.0+dfsg1
 _ZN3mir8protobuf4wire6ResultC1ERKS2_@MIR_PROTOBUF_3 1.7
 (arch=hppa)_ZN3mir8protobuf4wire6ResultC1Ev@MIR_PROTOBUF_3 1.8.0+dfsg1
 (arch=alpha amd64 arm64 armel armhf i386 m68k mips64el mipsel powerpc ppc64 ppc64el riscv64 s390x sh4 sparc64 x32)_ZN3mir8protobuf4wire6ResultC2EPN6google8protobuf5ArenaE@MIR_PROTOBUF_3 1.8.0+dfsg1
 _ZN3mir8protobuf4wire6ResultC2ERKS2_@MIR_PROTOBUF_3 1.8.0+dfsg1
 (arch=hppa)_ZN3mir8protobuf4wire6ResultC2Ev@MIR_PROTOBUF_3 1.8.0+dfsg1
 _ZN3mir8protobuf4wire6ResultD0Ev@MIR_PROTOBUF_3 1.7
 _ZN3mir8protobuf4wire6ResultD1Ev@MIR_PROTOBUF_3 1.7
 _ZN3mir8protobuf4wire6ResultD2Ev@MIR_PROTOBUF_3 1.8.0+dfsg1
 _ZN3mir8protobuf5Event12InternalSwapEPS1_@MIR_PROTOBUF_FEDORA 1.7
 _ZN3mir8protobuf5Event16default_instanceEv@MIR_PROTOBUF_3 1.7
 _ZN3mir8protobuf5Event21CheckTypeAndMergeFromERKN6google8protobuf11MessageLiteE@MIR_PROTOBUF_3 1.7
 _ZN3mir8protobuf5Event5ClearEv@MIR_PROTOBUF_3 1.7
 _ZN3mir8protobuf5Event8CopyFromERKS1_@MIR_PROTOBUF_3 1.7
 _ZN3mir8protobuf5Event9MergeFromERKS1_@MIR_PROTOBUF_3 1.7
 (arch=alpha amd64 arm64 armel armhf i386 m68k mips64el mipsel powerpc ppc64 ppc64el riscv64 s390x sh4 sparc64 x32)_ZN3mir8protobuf5EventC1EPN6google8protobuf5ArenaE@MIR_PROTOBUF_3 1.8.0+dfsg1
 _ZN3mir8protobuf5EventC1ERKS1_@MIR_PROTOBUF_3 1.7
 (arch=hppa)_ZN3mir8protobuf5EventC1Ev@MIR_PROTOBUF_3 1.8.0+dfsg1
 (arch=alpha amd64 arm64 armel armhf i386 m68k mips64el mipsel powerpc ppc64 ppc64el riscv64 s390x sh4 sparc64 x32)_ZN3mir8protobuf5EventC2EPN6google8protobuf5ArenaE@MIR_PROTOBUF_3 1.8.0+dfsg1
 _ZN3mir8protobuf5EventC2ERKS1_@MIR_PROTOBUF_3 1.8.0+dfsg1
 (arch=hppa)_ZN3mir8protobuf5EventC2Ev@MIR_PROTOBUF_3 1.8.0+dfsg1
 _ZN3mir8protobuf5EventD0Ev@MIR_PROTOBUF_3 1.7
 _ZN3mir8protobuf5EventD1Ev@MIR_PROTOBUF_3 1.7
 _ZN3mir8protobuf5EventD2Ev@MIR_PROTOBUF_3 1.8.0+dfsg1
 _ZN3mir8protobuf6Buffer12InternalSwapEPS1_@MIR_PROTOBUF_FEDORA 1.7
 _ZN3mir8protobuf6Buffer16default_instanceEv@MIR_PROTOBUF_3 1.7
 _ZN3mir8protobuf6Buffer21CheckTypeAndMergeFromERKN6google8protobuf11MessageLiteE@MIR_PROTOBUF_3 1.7
 _ZN3mir8protobuf6Buffer5ClearEv@MIR_PROTOBUF_3 1.7
 _ZN3mir8protobuf6Buffer8CopyFromERKS1_@MIR_PROTOBUF_3 1.7
 _ZN3mir8protobuf6Buffer9MergeFromERKS1_@MIR_PROTOBUF_3 1.7
 (arch=alpha amd64 arm64 armel armhf i386 m68k mips64el mipsel powerpc ppc64 ppc64el riscv64 s390x sh4 sparc64 x32)_ZN3mir8protobuf6BufferC1EPN6google8protobuf5ArenaE@MIR_PROTOBUF_3 1.8.0+dfsg1
 _ZN3mir8protobuf6BufferC1ERKS1_@MIR_PROTOBUF_3 1.7
 (arch=hppa)_ZN3mir8protobuf6BufferC1Ev@MIR_PROTOBUF_3 1.8.0+dfsg1
 (arch=alpha amd64 arm64 armel armhf i386 m68k mips64el mipsel powerpc ppc64 ppc64el riscv64 s390x sh4 sparc64 x32)_ZN3mir8protobuf6BufferC2EPN6google8protobuf5ArenaE@MIR_PROTOBUF_3 1.8.0+dfsg1
 _ZN3mir8protobuf6BufferC2ERKS1_@MIR_PROTOBUF_3 1.8.0+dfsg1
 (arch=hppa)_ZN3mir8protobuf6BufferC2Ev@MIR_PROTOBUF_3 1.8.0+dfsg1
 _ZN3mir8protobuf6BufferD0Ev@MIR_PROTOBUF_3 1.7
 _ZN3mir8protobuf6BufferD1Ev@MIR_PROTOBUF_3 1.7
 _ZN3mir8protobuf6BufferD2Ev@MIR_PROTOBUF_3 1.8.0+dfsg1
 _ZN3mir8protobuf6Cookie12InternalSwapEPS1_@MIR_PROTOBUF_FEDORA 1.7
 _ZN3mir8protobuf6Cookie16default_instanceEv@MIR_PROTOBUF_3 1.7
 _ZN3mir8protobuf6Cookie21CheckTypeAndMergeFromERKN6google8protobuf11MessageLiteE@MIR_PROTOBUF_3 1.7
 _ZN3mir8protobuf6Cookie5ClearEv@MIR_PROTOBUF_3 1.7
 _ZN3mir8protobuf6Cookie8CopyFromERKS1_@MIR_PROTOBUF_3 1.7
 _ZN3mir8protobuf6Cookie9MergeFromERKS1_@MIR_PROTOBUF_3 1.7
 (arch=alpha amd64 arm64 armel armhf i386 m68k mips64el mipsel powerpc ppc64 ppc64el riscv64 s390x sh4 sparc64 x32)_ZN3mir8protobuf6CookieC1EPN6google8protobuf5ArenaE@MIR_PROTOBUF_3 1.8.0+dfsg1
 _ZN3mir8protobuf6CookieC1ERKS1_@MIR_PROTOBUF_3 1.7
 (arch=hppa)_ZN3mir8protobuf6CookieC1Ev@MIR_PROTOBUF_3 1.8.0+dfsg1
 (arch=alpha amd64 arm64 armel armhf i386 m68k mips64el mipsel powerpc ppc64 ppc64el riscv64 s390x sh4 sparc64 x32)_ZN3mir8protobuf6CookieC2EPN6google8protobuf5ArenaE@MIR_PROTOBUF_3 1.8.0+dfsg1
 _ZN3mir8protobuf6CookieC2ERKS1_@MIR_PROTOBUF_3 1.8.0+dfsg1
 (arch=hppa)_ZN3mir8protobuf6CookieC2Ev@MIR_PROTOBUF_3 1.8.0+dfsg1
 _ZN3mir8protobuf6CookieD0Ev@MIR_PROTOBUF_3 1.7
 _ZN3mir8protobuf6CookieD1Ev@MIR_PROTOBUF_3 1.7
 _ZN3mir8protobuf6CookieD2Ev@MIR_PROTOBUF_3 1.8.0+dfsg1
 _ZN3mir8protobuf7Surface12InternalSwapEPS1_@MIR_PROTOBUF_FEDORA 1.7
 _ZN3mir8protobuf7Surface16default_instanceEv@MIR_PROTOBUF_3 1.7
 _ZN3mir8protobuf7Surface21CheckTypeAndMergeFromERKN6google8protobuf11MessageLiteE@MIR_PROTOBUF_3 1.7
 _ZN3mir8protobuf7Surface5ClearEv@MIR_PROTOBUF_3 1.7
 _ZN3mir8protobuf7Surface8CopyFromERKS1_@MIR_PROTOBUF_3 1.7
 _ZN3mir8protobuf7Surface9MergeFromERKS1_@MIR_PROTOBUF_3 1.7
 (arch=alpha amd64 arm64 armel armhf i386 m68k mips64el mipsel powerpc ppc64 ppc64el riscv64 s390x sh4 sparc64 x32)_ZN3mir8protobuf7SurfaceC1EPN6google8protobuf5ArenaE@MIR_PROTOBUF_3 1.8.0+dfsg1
 _ZN3mir8protobuf7SurfaceC1ERKS1_@MIR_PROTOBUF_3 1.7
 (arch=hppa)_ZN3mir8protobuf7SurfaceC1Ev@MIR_PROTOBUF_3 1.8.0+dfsg1
 (arch=alpha amd64 arm64 armel armhf i386 m68k mips64el mipsel powerpc ppc64 ppc64el riscv64 s390x sh4 sparc64 x32)_ZN3mir8protobuf7SurfaceC2EPN6google8protobuf5ArenaE@MIR_PROTOBUF_3 1.8.0+dfsg1
 _ZN3mir8protobuf7SurfaceC2ERKS1_@MIR_PROTOBUF_3 1.8.0+dfsg1
 (arch=hppa)_ZN3mir8protobuf7SurfaceC2Ev@MIR_PROTOBUF_3 1.8.0+dfsg1
 _ZN3mir8protobuf7SurfaceD0Ev@MIR_PROTOBUF_3 1.7
 _ZN3mir8protobuf7SurfaceD1Ev@MIR_PROTOBUF_3 1.7
 _ZN3mir8protobuf7SurfaceD2Ev@MIR_PROTOBUF_3 1.8.0+dfsg1
 _ZN3mir8protobuf8Platform12InternalSwapEPS1_@MIR_PROTOBUF_FEDORA 1.7
 _ZN3mir8protobuf8Platform16default_instanceEv@MIR_PROTOBUF_3 1.7
 _ZN3mir8protobuf8Platform21CheckTypeAndMergeFromERKN6google8protobuf11MessageLiteE@MIR_PROTOBUF_3 1.7
 _ZN3mir8protobuf8Platform5ClearEv@MIR_PROTOBUF_3 1.7
 _ZN3mir8protobuf8Platform8CopyFromERKS1_@MIR_PROTOBUF_3 1.7
 _ZN3mir8protobuf8Platform9MergeFromERKS1_@MIR_PROTOBUF_3 1.7
 (arch=alpha amd64 arm64 armel armhf i386 m68k mips64el mipsel powerpc ppc64 ppc64el riscv64 s390x sh4 sparc64 x32)_ZN3mir8protobuf8PlatformC1EPN6google8protobuf5ArenaE@MIR_PROTOBUF_3 1.8.0+dfsg1
 _ZN3mir8protobuf8PlatformC1ERKS1_@MIR_PROTOBUF_3 1.7
 (arch=hppa)_ZN3mir8protobuf8PlatformC1Ev@MIR_PROTOBUF_3 1.8.0+dfsg1
 (arch=alpha amd64 arm64 armel armhf i386 m68k mips64el mipsel powerpc ppc64 ppc64el riscv64 s390x sh4 sparc64 x32)_ZN3mir8protobuf8PlatformC2EPN6google8protobuf5ArenaE@MIR_PROTOBUF_3 1.8.0+dfsg1
 _ZN3mir8protobuf8PlatformC2ERKS1_@MIR_PROTOBUF_3 1.8.0+dfsg1
 (arch=hppa)_ZN3mir8protobuf8PlatformC2Ev@MIR_PROTOBUF_3 1.8.0+dfsg1
 _ZN3mir8protobuf8PlatformD0Ev@MIR_PROTOBUF_3 1.7
 _ZN3mir8protobuf8PlatformD1Ev@MIR_PROTOBUF_3 1.7
 _ZN3mir8protobuf8PlatformD2Ev@MIR_PROTOBUF_3 1.8.0+dfsg1
 _ZN3mir8protobuf8SocketFD12InternalSwapEPS1_@MIR_PROTOBUF_FEDORA 1.7
 _ZN3mir8protobuf8SocketFD16default_instanceEv@MIR_PROTOBUF_3 1.7
 _ZN3mir8protobuf8SocketFD21CheckTypeAndMergeFromERKN6google8protobuf11MessageLiteE@MIR_PROTOBUF_3 1.7
 _ZN3mir8protobuf8SocketFD5ClearEv@MIR_PROTOBUF_3 1.7
 _ZN3mir8protobuf8SocketFD8CopyFromERKS1_@MIR_PROTOBUF_3 1.7
 _ZN3mir8protobuf8SocketFD9MergeFromERKS1_@MIR_PROTOBUF_3 1.7
 (arch=alpha amd64 arm64 armel armhf i386 m68k mips64el mipsel powerpc ppc64 ppc64el riscv64 s390x sh4 sparc64 x32)_ZN3mir8protobuf8SocketFDC1EPN6google8protobuf5ArenaE@MIR_PROTOBUF_3 1.8.0+dfsg1
 _ZN3mir8protobuf8SocketFDC1ERKS1_@MIR_PROTOBUF_3 1.7
 (arch=hppa)_ZN3mir8protobuf8SocketFDC1Ev@MIR_PROTOBUF_3 1.8.0+dfsg1
 (arch=alpha amd64 arm64 armel armhf i386 m68k mips64el mipsel powerpc ppc64 ppc64el riscv64 s390x sh4 sparc64 x32)_ZN3mir8protobuf8SocketFDC2EPN6google8protobuf5ArenaE@MIR_PROTOBUF_3 1.8.0+dfsg1
 _ZN3mir8protobuf8SocketFDC2ERKS1_@MIR_PROTOBUF_3 1.8.0+dfsg1
 (arch=hppa)_ZN3mir8protobuf8SocketFDC2Ev@MIR_PROTOBUF_3 1.8.0+dfsg1
 _ZN3mir8protobuf8SocketFDD0Ev@MIR_PROTOBUF_3 1.7
 _ZN3mir8protobuf8SocketFDD1Ev@MIR_PROTOBUF_3 1.7
 _ZN3mir8protobuf8SocketFDD2Ev@MIR_PROTOBUF_3 1.8.0+dfsg1
 _ZN3mir8protobuf9Extension12InternalSwapEPS1_@MIR_PROTOBUF_FEDORA 1.7
 _ZN3mir8protobuf9Extension16default_instanceEv@MIR_PROTOBUF_0.27 1.7
 _ZN3mir8protobuf9Extension21CheckTypeAndMergeFromERKN6google8protobuf11MessageLiteE@MIR_PROTOBUF_0.27 1.7
 _ZN3mir8protobuf9Extension5ClearEv@MIR_PROTOBUF_0.27 1.7
 _ZN3mir8protobuf9Extension8CopyFromERKS1_@MIR_PROTOBUF_0.27 1.7
 _ZN3mir8protobuf9Extension9MergeFromERKS1_@MIR_PROTOBUF_0.27 1.7
 (arch=alpha amd64 arm64 armel armhf i386 m68k mips64el mipsel powerpc ppc64 ppc64el riscv64 s390x sh4 sparc64 x32)_ZN3mir8protobuf9ExtensionC1EPN6google8protobuf5ArenaE@MIR_PROTOBUF_0.27 1.8.0+dfsg1
 _ZN3mir8protobuf9ExtensionC1ERKS1_@MIR_PROTOBUF_0.27 1.7
 (arch=hppa)_ZN3mir8protobuf9ExtensionC1Ev@MIR_PROTOBUF_0.27 1.8.0+dfsg1
 (arch=alpha amd64 arm64 armel armhf i386 m68k mips64el mipsel powerpc ppc64 ppc64el riscv64 s390x sh4 sparc64 x32)_ZN3mir8protobuf9ExtensionC2EPN6google8protobuf5ArenaE@MIR_PROTOBUF_0.27 1.8.0+dfsg1
 _ZN3mir8protobuf9ExtensionC2ERKS1_@MIR_PROTOBUF_0.27 1.8.0+dfsg1
 (arch=hppa)_ZN3mir8protobuf9ExtensionC2Ev@MIR_PROTOBUF_0.27 1.8.0+dfsg1
 _ZN3mir8protobuf9ExtensionD0Ev@MIR_PROTOBUF_0.27 1.7
 _ZN3mir8protobuf9ExtensionD1Ev@MIR_PROTOBUF_0.27 1.7
 _ZN3mir8protobuf9ExtensionD2Ev@MIR_PROTOBUF_0.27 1.8.0+dfsg1
 _ZN3mir8protobuf9PingEvent12InternalSwapEPS1_@MIR_PROTOBUF_FEDORA 1.7
 _ZN3mir8protobuf9PingEvent16default_instanceEv@MIR_PROTOBUF_3 1.7
 _ZN3mir8protobuf9PingEvent21CheckTypeAndMergeFromERKN6google8protobuf11MessageLiteE@MIR_PROTOBUF_3 1.7
 _ZN3mir8protobuf9PingEvent5ClearEv@MIR_PROTOBUF_3 1.7
 _ZN3mir8protobuf9PingEvent8CopyFromERKS1_@MIR_PROTOBUF_3 1.7
 _ZN3mir8protobuf9PingEvent9MergeFromERKS1_@MIR_PROTOBUF_3 1.7
 (arch=alpha amd64 arm64 armel armhf i386 m68k mips64el mipsel powerpc ppc64 ppc64el riscv64 s390x sh4 sparc64 x32)_ZN3mir8protobuf9PingEventC1EPN6google8protobuf5ArenaE@MIR_PROTOBUF_3 1.8.0+dfsg1
 _ZN3mir8protobuf9PingEventC1ERKS1_@MIR_PROTOBUF_3 1.7
 (arch=hppa)_ZN3mir8protobuf9PingEventC1Ev@MIR_PROTOBUF_3 1.8.0+dfsg1
 (arch=alpha amd64 arm64 armel armhf i386 m68k mips64el mipsel powerpc ppc64 ppc64el riscv64 s390x sh4 sparc64 x32)_ZN3mir8protobuf9PingEventC2EPN6google8protobuf5ArenaE@MIR_PROTOBUF_3 1.8.0+dfsg1
 _ZN3mir8protobuf9PingEventC2ERKS1_@MIR_PROTOBUF_3 1.8.0+dfsg1
 (arch=hppa)_ZN3mir8protobuf9PingEventC2Ev@MIR_PROTOBUF_3 1.8.0+dfsg1
 _ZN3mir8protobuf9PingEventD0Ev@MIR_PROTOBUF_3 1.7
 _ZN3mir8protobuf9PingEventD1Ev@MIR_PROTOBUF_3 1.7
 _ZN3mir8protobuf9PingEventD2Ev@MIR_PROTOBUF_3 1.8.0+dfsg1
 _ZN3mir8protobuf9Rectangle12InternalSwapEPS1_@MIR_PROTOBUF_FEDORA 1.7
 _ZN3mir8protobuf9Rectangle16default_instanceEv@MIR_PROTOBUF_3 1.7
 _ZN3mir8protobuf9Rectangle21CheckTypeAndMergeFromERKN6google8protobuf11MessageLiteE@MIR_PROTOBUF_3 1.7
 _ZN3mir8protobuf9Rectangle5ClearEv@MIR_PROTOBUF_3 1.7
 _ZN3mir8protobuf9Rectangle8CopyFromERKS1_@MIR_PROTOBUF_3 1.7
 _ZN3mir8protobuf9Rectangle9MergeFromERKS1_@MIR_PROTOBUF_3 1.7
 (arch=alpha amd64 arm64 armel armhf i386 m68k mips64el mipsel powerpc ppc64 ppc64el riscv64 s390x sh4 sparc64 x32)_ZN3mir8protobuf9RectangleC1EPN6google8protobuf5ArenaE@MIR_PROTOBUF_3 1.8.0+dfsg1
 _ZN3mir8protobuf9RectangleC1ERKS1_@MIR_PROTOBUF_3 1.7
 (arch=hppa)_ZN3mir8protobuf9RectangleC1Ev@MIR_PROTOBUF_3 1.8.0+dfsg1
 (arch=alpha amd64 arm64 armel armhf i386 m68k mips64el mipsel powerpc ppc64 ppc64el riscv64 s390x sh4 sparc64 x32)_ZN3mir8protobuf9RectangleC2EPN6google8protobuf5ArenaE@MIR_PROTOBUF_3 1.8.0+dfsg1
 _ZN3mir8protobuf9RectangleC2ERKS1_@MIR_PROTOBUF_3 1.8.0+dfsg1
 (arch=hppa)_ZN3mir8protobuf9RectangleC2Ev@MIR_PROTOBUF_3 1.8.0+dfsg1
 _ZN3mir8protobuf9RectangleD0Ev@MIR_PROTOBUF_3 1.7
 _ZN3mir8protobuf9RectangleD1Ev@MIR_PROTOBUF_3 1.7
 _ZN3mir8protobuf9RectangleD2Ev@MIR_PROTOBUF_3 1.8.0+dfsg1
 _ZN3mir8protobuf9SurfaceId12InternalSwapEPS1_@MIR_PROTOBUF_FEDORA 1.7
 _ZN3mir8protobuf9SurfaceId16default_instanceEv@MIR_PROTOBUF_3 1.7
 _ZN3mir8protobuf9SurfaceId21CheckTypeAndMergeFromERKN6google8protobuf11MessageLiteE@MIR_PROTOBUF_3 1.7
 _ZN3mir8protobuf9SurfaceId5ClearEv@MIR_PROTOBUF_3 1.7
 _ZN3mir8protobuf9SurfaceId8CopyFromERKS1_@MIR_PROTOBUF_3 1.7
 _ZN3mir8protobuf9SurfaceId9MergeFromERKS1_@MIR_PROTOBUF_3 1.7
 (arch=alpha amd64 arm64 armel armhf i386 m68k mips64el mipsel powerpc ppc64 ppc64el riscv64 s390x sh4 sparc64 x32)_ZN3mir8protobuf9SurfaceIdC1EPN6google8protobuf5ArenaE@MIR_PROTOBUF_3 1.8.0+dfsg1
 _ZN3mir8protobuf9SurfaceIdC1ERKS1_@MIR_PROTOBUF_3 1.7
 (arch=hppa)_ZN3mir8protobuf9SurfaceIdC1Ev@MIR_PROTOBUF_3 1.8.0+dfsg1
 (arch=alpha amd64 arm64 armel armhf i386 m68k mips64el mipsel powerpc ppc64 ppc64el riscv64 s390x sh4 sparc64 x32)_ZN3mir8protobuf9SurfaceIdC2EPN6google8protobuf5ArenaE@MIR_PROTOBUF_3 1.8.0+dfsg1
 _ZN3mir8protobuf9SurfaceIdC2ERKS1_@MIR_PROTOBUF_3 1.8.0+dfsg1
 (arch=hppa)_ZN3mir8protobuf9SurfaceIdC2Ev@MIR_PROTOBUF_3 1.8.0+dfsg1
 _ZN3mir8protobuf9SurfaceIdD0Ev@MIR_PROTOBUF_3 1.7
 _ZN3mir8protobuf9SurfaceIdD1Ev@MIR_PROTOBUF_3 1.7
 _ZN3mir8protobuf9SurfaceIdD2Ev@MIR_PROTOBUF_3 1.8.0+dfsg1
 (optional=templinst)_ZN6google8protobuf5Arena18CreateMaybeMessageIN3mir8protobuf10ConnectionEJEEEPT_PS1_DpOT0_@MIR_PROTOBUF_PROTOBUF_3.6.0 1.7
 (optional=templinst)_ZN6google8protobuf5Arena18CreateMaybeMessageIN3mir8protobuf10ScreencastEJEEEPT_PS1_DpOT0_@MIR_PROTOBUF_PROTOBUF_3.6.0 1.7
 (optional=templinst)_ZN6google8protobuf5Arena18CreateMaybeMessageIN3mir8protobuf11DisplayCardEJEEEPT_PS1_DpOT0_@MIR_PROTOBUF_PROTOBUF_3.6.0 1.7
 (optional=templinst)_ZN6google8protobuf5Arena18CreateMaybeMessageIN3mir8protobuf11DisplayModeEJEEEPT_PS1_DpOT0_@MIR_PROTOBUF_PROTOBUF_3.6.0 1.7
 (optional=templinst)_ZN6google8protobuf5Arena18CreateMaybeMessageIN3mir8protobuf12BufferStreamEJEEEPT_PS1_DpOT0_@MIR_PROTOBUF_PROTOBUF_3.6.0 1.7
 (optional=templinst)_ZN6google8protobuf5Arena18CreateMaybeMessageIN3mir8protobuf12InputDevicesEJEEEPT_PS1_DpOT0_@MIR_PROTOBUF_PROTOBUF_3.6.0 1.7
 (optional=templinst)_ZN6google8protobuf5Arena18CreateMaybeMessageIN3mir8protobuf12ScreencastIdEJEEEPT_PS1_DpOT0_@MIR_PROTOBUF_PROTOBUF_3.6.0 1.7
 (optional=templinst)_ZN6google8protobuf5Arena18CreateMaybeMessageIN3mir8protobuf13BufferReleaseEJEEEPT_PS1_DpOT0_@MIR_PROTOBUF_PROTOBUF_3.6.0 1.7
 (optional=templinst)_ZN6google8protobuf5Arena18CreateMaybeMessageIN3mir8protobuf13BufferRequestEJEEEPT_PS1_DpOT0_@MIR_PROTOBUF_PROTOBUF_3.6.0 1.7
 (optional=templinst)_ZN6google8protobuf5Arena18CreateMaybeMessageIN3mir8protobuf13CursorSettingEJEEEPT_PS1_DpOT0_@MIR_PROTOBUF_PROTOBUF_3.6.0 1.7
 (optional=templinst)_ZN6google8protobuf5Arena18CreateMaybeMessageIN3mir8protobuf13DisplayOutputEJEEEPT_PS1_DpOT0_@MIR_PROTOBUF_PROTOBUF_3.6.0 1.7
 (optional=templinst)_ZN6google8protobuf5Arena18CreateMaybeMessageIN3mir8protobuf13EventSequenceEJEEEPT_PS1_DpOT0_@MIR_PROTOBUF_PROTOBUF_3.6.0 1.7
 (optional=templinst)_ZN6google8protobuf5Arena18CreateMaybeMessageIN3mir8protobuf13PromptSessionEJEEEPT_PS1_DpOT0_@MIR_PROTOBUF_PROTOBUF_3.6.0 1.7
 (optional=templinst)_ZN6google8protobuf5Arena18CreateMaybeMessageIN3mir8protobuf14BufferStreamIdEJEEEPT_PS1_DpOT0_@MIR_PROTOBUF_PROTOBUF_3.6.0 1.7
 (optional=templinst)_ZN6google8protobuf5Arena18CreateMaybeMessageIN3mir8protobuf14LifecycleEventEJEEEPT_PS1_DpOT0_@MIR_PROTOBUF_PROTOBUF_3.6.0 1.7
 (optional=templinst)_ZN6google8protobuf5Arena18CreateMaybeMessageIN3mir8protobuf14SurfaceSettingEJEEEPT_PS1_DpOT0_@MIR_PROTOBUF_PROTOBUF_3.6.0 1.7
 (optional=templinst)_ZN6google8protobuf5Arena18CreateMaybeMessageIN3mir8protobuf15InputDeviceInfoEJEEEPT_PS1_DpOT0_@MIR_PROTOBUF_PROTOBUF_3.6.0 1.7
 (optional=templinst)_ZN6google8protobuf5Arena18CreateMaybeMessageIN3mir8protobuf15SocketFDRequestEJEEEPT_PS1_DpOT0_@MIR_PROTOBUF_PROTOBUF_3.6.0 1.7
 (optional=templinst)_ZN6google8protobuf5Arena18CreateMaybeMessageIN3mir8protobuf15StructuredErrorEJEEEPT_PS1_DpOT0_@MIR_PROTOBUF_PROTOBUF_3.6.0 1.7
 (optional=templinst)_ZN6google8protobuf5Arena18CreateMaybeMessageIN3mir8protobuf16BufferAllocationEJEEEPT_PS1_DpOT0_@MIR_PROTOBUF_PROTOBUF_3.6.0 1.7
 (optional=templinst)_ZN6google8protobuf5Arena18CreateMaybeMessageIN3mir8protobuf16ModulePropertiesEJEEEPT_PS1_DpOT0_@MIR_PROTOBUF_PROTOBUF_3.6.0 1.7
 (optional=templinst)_ZN6google8protobuf5Arena18CreateMaybeMessageIN3mir8protobuf17ConnectParametersEJEEEPT_PS1_DpOT0_@MIR_PROTOBUF_PROTOBUF_3.6.0 1.7
 (optional=templinst)_ZN6google8protobuf5Arena18CreateMaybeMessageIN3mir8protobuf17ScreencastRequestEJEEEPT_PS1_DpOT0_@MIR_PROTOBUF_PROTOBUF_3.6.0 1.7
 (optional=templinst)_ZN6google8protobuf5Arena18CreateMaybeMessageIN3mir8protobuf17SurfaceParametersEJEEEPT_PS1_DpOT0_@MIR_PROTOBUF_PROTOBUF_3.6.0 1.7
 (optional=templinst)_ZN6google8protobuf5Arena18CreateMaybeMessageIN3mir8protobuf18SurfaceAspectRatioEJEEEPT_PS1_DpOT0_@MIR_PROTOBUF_PROTOBUF_3.6.0 1.7
 (optional=templinst)_ZN6google8protobuf5Arena18CreateMaybeMessageIN3mir8protobuf19PersistentSurfaceIdEJEEEPT_PS1_DpOT0_@MIR_PROTOBUF_PROTOBUF_3.6.0 1.7
 (optional=templinst)_ZN6google8protobuf5Arena18CreateMaybeMessageIN3mir8protobuf19StreamConfigurationEJEEEPT_PS1_DpOT0_@MIR_PROTOBUF_PROTOBUF_3.6.0 1.7
 (optional=templinst)_ZN6google8protobuf5Arena18CreateMaybeMessageIN3mir8protobuf20DisplayConfigurationEJEEEPT_PS1_DpOT0_@MIR_PROTOBUF_PROTOBUF_3.6.0 1.7
 (optional=templinst)_ZN6google8protobuf5Arena18CreateMaybeMessageIN3mir8protobuf20PointerConfigurationEJEEEPT_PS1_DpOT0_@MIR_PROTOBUF_PROTOBUF_3.6.0 1.7
 (optional=templinst)_ZN6google8protobuf5Arena18CreateMaybeMessageIN3mir8protobuf20PreviewConfigurationEJEEEPT_PS1_DpOT0_@MIR_PROTOBUF_PROTOBUF_3.6.0 1.7
 (optional=templinst)_ZN6google8protobuf5Arena18CreateMaybeMessageIN3mir8protobuf20RequestWithAuthorityEJEEEPT_PS1_DpOT0_@MIR_PROTOBUF_PROTOBUF_3.6.0 1.7
 (optional=templinst)_ZN6google8protobuf5Arena18CreateMaybeMessageIN3mir8protobuf20ScreencastParametersEJEEEPT_PS1_DpOT0_@MIR_PROTOBUF_PROTOBUF_3.6.0 1.7
 (optional=templinst)_ZN6google8protobuf5Arena18CreateMaybeMessageIN3mir8protobuf20SurfaceModificationsEJEEEPT_PS1_DpOT0_@MIR_PROTOBUF_PROTOBUF_3.6.0 1.7
 (optional=templinst)_ZN6google8protobuf5Arena18CreateMaybeMessageIN3mir8protobuf20SurfaceSpecificationEJEEEPT_PS1_DpOT0_@MIR_PROTOBUF_PROTOBUF_3.6.0 1.7
 (optional=templinst)_ZN6google8protobuf5Arena18CreateMaybeMessageIN3mir8protobuf21TouchpadConfigurationEJEEEPT_PS1_DpOT0_@MIR_PROTOBUF_PROTOBUF_3.6.0 1.7
 (optional=templinst)_ZN6google8protobuf5Arena18CreateMaybeMessageIN3mir8protobuf22BufferStreamParametersEJEEEPT_PS1_DpOT0_@MIR_PROTOBUF_PROTOBUF_3.6.0 1.7
 (optional=templinst)_ZN6google8protobuf5Arena18CreateMaybeMessageIN3mir8protobuf23PromptSessionParametersEJEEEPT_PS1_DpOT0_@MIR_PROTOBUF_PROTOBUF_3.6.0 1.7
 (optional=templinst)_ZN6google8protobuf5Arena18CreateMaybeMessageIN3mir8protobuf24PlatformOperationMessageEJEEEPT_PS1_DpOT0_@MIR_PROTOBUF_PROTOBUF_3.6.0 1.7
 (optional=templinst)_ZN6google8protobuf5Arena18CreateMaybeMessageIN3mir8protobuf25InputConfigurationRequestEJEEEPT_PS1_DpOT0_@MIR_PROTOBUF_PROTOBUF_3.6.0 1.7
 (optional=templinst)_ZN6google8protobuf5Arena18CreateMaybeMessageIN3mir8protobuf28CoordinateTranslationRequestEJEEEPT_PS1_DpOT0_@MIR_PROTOBUF_PROTOBUF_3.6.0 1.7
 (optional=templinst)_ZN6google8protobuf5Arena18CreateMaybeMessageIN3mir8protobuf29CoordinateTranslationResponseEJEEEPT_PS1_DpOT0_@MIR_PROTOBUF_PROTOBUF_3.6.0 1.7
 (optional=templinst)_ZN6google8protobuf5Arena18CreateMaybeMessageIN3mir8protobuf4VoidEJEEEPT_PS1_DpOT0_@MIR_PROTOBUF_PROTOBUF_3.6.0 1.7
 (optional=templinst)_ZN6google8protobuf5Arena18CreateMaybeMessageIN3mir8protobuf4wire10InvocationEJEEEPT_PS1_DpOT0_@MIR_PROTOBUF_PROTOBUF_3.6.0 1.7
 (optional=templinst)_ZN6google8protobuf5Arena18CreateMaybeMessageIN3mir8protobuf4wire6ResultEJEEEPT_PS1_DpOT0_@MIR_PROTOBUF_PROTOBUF_3.6.0 1.7
 (optional=templinst)_ZN6google8protobuf5Arena18CreateMaybeMessageIN3mir8protobuf5EventEJEEEPT_PS1_DpOT0_@MIR_PROTOBUF_PROTOBUF_3.6.0 1.7
 (optional=templinst)_ZN6google8protobuf5Arena18CreateMaybeMessageIN3mir8protobuf6BufferEJEEEPT_PS1_DpOT0_@MIR_PROTOBUF_PROTOBUF_3.6.0 1.7
 (optional=templinst)_ZN6google8protobuf5Arena18CreateMaybeMessageIN3mir8protobuf6CookieEJEEEPT_PS1_DpOT0_@MIR_PROTOBUF_PROTOBUF_3.6.0 1.7
 (optional=templinst)_ZN6google8protobuf5Arena18CreateMaybeMessageIN3mir8protobuf7SurfaceEJEEEPT_PS1_DpOT0_@MIR_PROTOBUF_PROTOBUF_3.6.0 1.7
 (optional=templinst)_ZN6google8protobuf5Arena18CreateMaybeMessageIN3mir8protobuf8PlatformEJEEEPT_PS1_DpOT0_@MIR_PROTOBUF_PROTOBUF_3.6.0 1.7
 (optional=templinst)_ZN6google8protobuf5Arena18CreateMaybeMessageIN3mir8protobuf8SocketFDEJEEEPT_PS1_DpOT0_@MIR_PROTOBUF_PROTOBUF_3.6.0 1.7
 (optional=templinst)_ZN6google8protobuf5Arena18CreateMaybeMessageIN3mir8protobuf9ExtensionEJEEEPT_PS1_DpOT0_@MIR_PROTOBUF_PROTOBUF_3.6.0 1.7
 (optional=templinst)_ZN6google8protobuf5Arena18CreateMaybeMessageIN3mir8protobuf9PingEventEJEEEPT_PS1_DpOT0_@MIR_PROTOBUF_PROTOBUF_3.6.0 1.7
 (optional=templinst)_ZN6google8protobuf5Arena18CreateMaybeMessageIN3mir8protobuf9RectangleEJEEEPT_PS1_DpOT0_@MIR_PROTOBUF_PROTOBUF_3.6.0 1.7
 (optional=templinst)_ZN6google8protobuf5Arena18CreateMaybeMessageIN3mir8protobuf9SurfaceIdEJEEEPT_PS1_DpOT0_@MIR_PROTOBUF_PROTOBUF_3.6.0 1.7
 _ZNK3mir8protobuf10Connection11GetTypeNameB5cxx11Ev@MIR_PROTOBUF_3 1.7
 _ZNK3mir8protobuf10Connection12ByteSizeLongEv@MIR_PROTOBUF_3 1.7
 _ZNK3mir8protobuf10Connection13IsInitializedEv@MIR_PROTOBUF_3 1.7
 (arch=mips64el ppc64 s390x)_ZNK3mir8protobuf10Connection3NewEPN6google8protobuf5ArenaE@MIR_PROTOBUF_3 1.8.0+dfsg1
 (arch=mips64el ppc64 s390x)_ZNK3mir8protobuf10Connection3NewEv@MIR_PROTOBUF_3 1.8.0+dfsg1
 _ZNK3mir8protobuf10Screencast11GetTypeNameB5cxx11Ev@MIR_PROTOBUF_3 1.7
 _ZNK3mir8protobuf10Screencast12ByteSizeLongEv@MIR_PROTOBUF_3 1.7
 _ZNK3mir8protobuf10Screencast13IsInitializedEv@MIR_PROTOBUF_3 1.7
 (arch=mips64el ppc64 s390x)_ZNK3mir8protobuf10Screencast3NewEPN6google8protobuf5ArenaE@MIR_PROTOBUF_3 1.8.0+dfsg1
 (arch=mips64el ppc64 s390x)_ZNK3mir8protobuf10Screencast3NewEv@MIR_PROTOBUF_3 1.8.0+dfsg1
 _ZNK3mir8protobuf11DisplayCard11GetTypeNameB5cxx11Ev@MIR_PROTOBUF_3 1.7
 _ZNK3mir8protobuf11DisplayCard12ByteSizeLongEv@MIR_PROTOBUF_3 1.7
 _ZNK3mir8protobuf11DisplayCard13IsInitializedEv@MIR_PROTOBUF_3 1.7
 (arch=mips64el ppc64 s390x)_ZNK3mir8protobuf11DisplayCard3NewEPN6google8protobuf5ArenaE@MIR_PROTOBUF_3 1.8.0+dfsg1
 (arch=mips64el ppc64 s390x)_ZNK3mir8protobuf11DisplayCard3NewEv@MIR_PROTOBUF_3 1.8.0+dfsg1
 _ZNK3mir8protobuf11DisplayMode11GetTypeNameB5cxx11Ev@MIR_PROTOBUF_3 1.7
 _ZNK3mir8protobuf11DisplayMode12ByteSizeLongEv@MIR_PROTOBUF_3 1.7
 _ZNK3mir8protobuf11DisplayMode13IsInitializedEv@MIR_PROTOBUF_3 1.7
 (arch=mips64el ppc64 s390x)_ZNK3mir8protobuf11DisplayMode3NewEPN6google8protobuf5ArenaE@MIR_PROTOBUF_3 1.8.0+dfsg1
 (arch=mips64el ppc64 s390x)_ZNK3mir8protobuf11DisplayMode3NewEv@MIR_PROTOBUF_3 1.8.0+dfsg1
 _ZNK3mir8protobuf12BufferStream11GetTypeNameB5cxx11Ev@MIR_PROTOBUF_3 1.7
 _ZNK3mir8protobuf12BufferStream12ByteSizeLongEv@MIR_PROTOBUF_3 1.7
 _ZNK3mir8protobuf12BufferStream13IsInitializedEv@MIR_PROTOBUF_3 1.7
 (arch=mips64el ppc64 s390x)_ZNK3mir8protobuf12BufferStream3NewEPN6google8protobuf5ArenaE@MIR_PROTOBUF_3 1.8.0+dfsg1
 (arch=mips64el ppc64 s390x)_ZNK3mir8protobuf12BufferStream3NewEv@MIR_PROTOBUF_3 1.8.0+dfsg1
 (arch=mips64el ppc64 s390x)_ZNK3mir8protobuf12InputDevices3NewEPN6google8protobuf5ArenaE@MIR_PROTOBUF_0.26 1.8.0+dfsg1
 (arch=mips64el ppc64 s390x)_ZNK3mir8protobuf12InputDevices3NewEv@MIR_PROTOBUF_0.26 1.8.0+dfsg1
 _ZNK3mir8protobuf12ScreencastId11GetTypeNameB5cxx11Ev@MIR_PROTOBUF_3 1.7
 _ZNK3mir8protobuf12ScreencastId12ByteSizeLongEv@MIR_PROTOBUF_3 1.7
 _ZNK3mir8protobuf12ScreencastId13IsInitializedEv@MIR_PROTOBUF_3 1.7
 (arch=mips64el ppc64 s390x)_ZNK3mir8protobuf12ScreencastId3NewEPN6google8protobuf5ArenaE@MIR_PROTOBUF_3 1.8.0+dfsg1
 (arch=mips64el ppc64 s390x)_ZNK3mir8protobuf12ScreencastId3NewEv@MIR_PROTOBUF_3 1.8.0+dfsg1
 _ZNK3mir8protobuf13BufferRelease11GetTypeNameB5cxx11Ev@MIR_PROTOBUF_3 1.7
 _ZNK3mir8protobuf13BufferRelease12ByteSizeLongEv@MIR_PROTOBUF_3 1.7
 _ZNK3mir8protobuf13BufferRelease13IsInitializedEv@MIR_PROTOBUF_3 1.7
 (arch=mips64el ppc64 s390x)_ZNK3mir8protobuf13BufferRelease3NewEPN6google8protobuf5ArenaE@MIR_PROTOBUF_3 1.8.0+dfsg1
 (arch=mips64el ppc64 s390x)_ZNK3mir8protobuf13BufferRelease3NewEv@MIR_PROTOBUF_3 1.8.0+dfsg1
 _ZNK3mir8protobuf13BufferRequest11GetTypeNameB5cxx11Ev@MIR_PROTOBUF_3 1.7
 _ZNK3mir8protobuf13BufferRequest12ByteSizeLongEv@MIR_PROTOBUF_3 1.7
 _ZNK3mir8protobuf13BufferRequest13IsInitializedEv@MIR_PROTOBUF_3 1.7
 (arch=mips64el ppc64 s390x)_ZNK3mir8protobuf13BufferRequest3NewEPN6google8protobuf5ArenaE@MIR_PROTOBUF_3 1.8.0+dfsg1
 (arch=mips64el ppc64 s390x)_ZNK3mir8protobuf13BufferRequest3NewEv@MIR_PROTOBUF_3 1.8.0+dfsg1
 _ZNK3mir8protobuf13CursorSetting11GetTypeNameB5cxx11Ev@MIR_PROTOBUF_3 1.7
 _ZNK3mir8protobuf13CursorSetting12ByteSizeLongEv@MIR_PROTOBUF_3 1.7
 _ZNK3mir8protobuf13CursorSetting13IsInitializedEv@MIR_PROTOBUF_3 1.7
 (arch=mips64el ppc64 s390x)_ZNK3mir8protobuf13CursorSetting3NewEPN6google8protobuf5ArenaE@MIR_PROTOBUF_3 1.8.0+dfsg1
 (arch=mips64el ppc64 s390x)_ZNK3mir8protobuf13CursorSetting3NewEv@MIR_PROTOBUF_3 1.8.0+dfsg1
 _ZNK3mir8protobuf13DisplayOutput11GetTypeNameB5cxx11Ev@MIR_PROTOBUF_3 1.7
 _ZNK3mir8protobuf13DisplayOutput12ByteSizeLongEv@MIR_PROTOBUF_3 1.7
 _ZNK3mir8protobuf13DisplayOutput13IsInitializedEv@MIR_PROTOBUF_3 1.7
 (arch=mips64el ppc64 s390x)_ZNK3mir8protobuf13DisplayOutput3NewEPN6google8protobuf5ArenaE@MIR_PROTOBUF_3 1.8.0+dfsg1
 (arch=mips64el ppc64 s390x)_ZNK3mir8protobuf13DisplayOutput3NewEv@MIR_PROTOBUF_3 1.8.0+dfsg1
 _ZNK3mir8protobuf13EventSequence11GetTypeNameB5cxx11Ev@MIR_PROTOBUF_3 1.7
 _ZNK3mir8protobuf13EventSequence12ByteSizeLongEv@MIR_PROTOBUF_3 1.7
 _ZNK3mir8protobuf13EventSequence13IsInitializedEv@MIR_PROTOBUF_3 1.7
 (arch=mips64el ppc64 s390x)_ZNK3mir8protobuf13EventSequence3NewEPN6google8protobuf5ArenaE@MIR_PROTOBUF_3 1.8.0+dfsg1
 (arch=mips64el ppc64 s390x)_ZNK3mir8protobuf13EventSequence3NewEv@MIR_PROTOBUF_3 1.8.0+dfsg1
 _ZNK3mir8protobuf13PromptSession11GetTypeNameB5cxx11Ev@MIR_PROTOBUF_0.26 1.7
 _ZNK3mir8protobuf13PromptSession12ByteSizeLongEv@MIR_PROTOBUF_0.26 1.7
 _ZNK3mir8protobuf13PromptSession13IsInitializedEv@MIR_PROTOBUF_0.26 1.7
 (arch=mips64el ppc64 s390x)_ZNK3mir8protobuf13PromptSession3NewEPN6google8protobuf5ArenaE@MIR_PROTOBUF_0.26 1.8.0+dfsg1
 (arch=mips64el ppc64 s390x)_ZNK3mir8protobuf13PromptSession3NewEv@MIR_PROTOBUF_0.26 1.8.0+dfsg1
 _ZNK3mir8protobuf14BufferStreamId11GetTypeNameB5cxx11Ev@MIR_PROTOBUF_3 1.7
 _ZNK3mir8protobuf14BufferStreamId12ByteSizeLongEv@MIR_PROTOBUF_3 1.7
 _ZNK3mir8protobuf14BufferStreamId13IsInitializedEv@MIR_PROTOBUF_3 1.7
 (arch=mips64el ppc64 s390x)_ZNK3mir8protobuf14BufferStreamId3NewEPN6google8protobuf5ArenaE@MIR_PROTOBUF_3 1.8.0+dfsg1
 (arch=mips64el ppc64 s390x)_ZNK3mir8protobuf14BufferStreamId3NewEv@MIR_PROTOBUF_3 1.8.0+dfsg1
 _ZNK3mir8protobuf14LifecycleEvent11GetTypeNameB5cxx11Ev@MIR_PROTOBUF_3 1.7
 _ZNK3mir8protobuf14LifecycleEvent12ByteSizeLongEv@MIR_PROTOBUF_3 1.7
 _ZNK3mir8protobuf14LifecycleEvent13IsInitializedEv@MIR_PROTOBUF_3 1.7
 (arch=mips64el ppc64 s390x)_ZNK3mir8protobuf14LifecycleEvent3NewEPN6google8protobuf5ArenaE@MIR_PROTOBUF_3 1.8.0+dfsg1
 (arch=mips64el ppc64 s390x)_ZNK3mir8protobuf14LifecycleEvent3NewEv@MIR_PROTOBUF_3 1.8.0+dfsg1
 _ZNK3mir8protobuf14SurfaceSetting11GetTypeNameB5cxx11Ev@MIR_PROTOBUF_3 1.7
 _ZNK3mir8protobuf14SurfaceSetting12ByteSizeLongEv@MIR_PROTOBUF_3 1.7
 _ZNK3mir8protobuf14SurfaceSetting13IsInitializedEv@MIR_PROTOBUF_3 1.7
 (arch=mips64el ppc64 s390x)_ZNK3mir8protobuf14SurfaceSetting3NewEPN6google8protobuf5ArenaE@MIR_PROTOBUF_3 1.8.0+dfsg1
 (arch=mips64el ppc64 s390x)_ZNK3mir8protobuf14SurfaceSetting3NewEv@MIR_PROTOBUF_3 1.8.0+dfsg1
 (arch=mips64el ppc64 s390x)_ZNK3mir8protobuf15InputDeviceInfo3NewEPN6google8protobuf5ArenaE@MIR_PROTOBUF_3 1.8.0+dfsg1
 (arch=mips64el ppc64 s390x)_ZNK3mir8protobuf15InputDeviceInfo3NewEv@MIR_PROTOBUF_3 1.8.0+dfsg1
 _ZNK3mir8protobuf15SocketFDRequest11GetTypeNameB5cxx11Ev@MIR_PROTOBUF_3 1.7
 _ZNK3mir8protobuf15SocketFDRequest12ByteSizeLongEv@MIR_PROTOBUF_3 1.7
 _ZNK3mir8protobuf15SocketFDRequest13IsInitializedEv@MIR_PROTOBUF_3 1.7
 (arch=mips64el ppc64 s390x)_ZNK3mir8protobuf15SocketFDRequest3NewEPN6google8protobuf5ArenaE@MIR_PROTOBUF_3 1.8.0+dfsg1
 (arch=mips64el ppc64 s390x)_ZNK3mir8protobuf15SocketFDRequest3NewEv@MIR_PROTOBUF_3 1.8.0+dfsg1
 _ZNK3mir8protobuf16BufferAllocation11GetTypeNameB5cxx11Ev@MIR_PROTOBUF_3 1.7
 _ZNK3mir8protobuf16BufferAllocation12ByteSizeLongEv@MIR_PROTOBUF_3 1.7
 _ZNK3mir8protobuf16BufferAllocation13IsInitializedEv@MIR_PROTOBUF_3 1.7
 (arch=mips64el ppc64 s390x)_ZNK3mir8protobuf16BufferAllocation3NewEPN6google8protobuf5ArenaE@MIR_PROTOBUF_3 1.8.0+dfsg1
 (arch=mips64el ppc64 s390x)_ZNK3mir8protobuf16BufferAllocation3NewEv@MIR_PROTOBUF_3 1.8.0+dfsg1
 _ZNK3mir8protobuf16ModuleProperties11GetTypeNameB5cxx11Ev@MIR_PROTOBUF_3v19 1.7
 _ZNK3mir8protobuf16ModuleProperties12ByteSizeLongEv@MIR_PROTOBUF_3v19 1.7
 _ZNK3mir8protobuf16ModuleProperties13IsInitializedEv@MIR_PROTOBUF_3v19 1.7
 (arch=mips64el ppc64 s390x)_ZNK3mir8protobuf16ModuleProperties3NewEPN6google8protobuf5ArenaE@MIR_PROTOBUF_3v19 1.8.0+dfsg1
 (arch=mips64el ppc64 s390x)_ZNK3mir8protobuf16ModuleProperties3NewEv@MIR_PROTOBUF_3v19 1.8.0+dfsg1
 _ZNK3mir8protobuf17ConnectParameters11GetTypeNameB5cxx11Ev@MIR_PROTOBUF_3 1.7
 _ZNK3mir8protobuf17ConnectParameters12ByteSizeLongEv@MIR_PROTOBUF_3 1.7
 _ZNK3mir8protobuf17ConnectParameters13IsInitializedEv@MIR_PROTOBUF_3 1.7
 (arch=mips64el ppc64 s390x)_ZNK3mir8protobuf17ConnectParameters3NewEPN6google8protobuf5ArenaE@MIR_PROTOBUF_3 1.8.0+dfsg1
 (arch=mips64el ppc64 s390x)_ZNK3mir8protobuf17ConnectParameters3NewEv@MIR_PROTOBUF_3 1.8.0+dfsg1
 _ZNK3mir8protobuf17ScreencastRequest11GetTypeNameB5cxx11Ev@MIR_PROTOBUF_0.26 1.7
 _ZNK3mir8protobuf17ScreencastRequest12ByteSizeLongEv@MIR_PROTOBUF_0.26 1.7
 _ZNK3mir8protobuf17ScreencastRequest13IsInitializedEv@MIR_PROTOBUF_0.26 1.7
 (arch=mips64el ppc64 s390x)_ZNK3mir8protobuf17ScreencastRequest3NewEPN6google8protobuf5ArenaE@MIR_PROTOBUF_0.26 1.8.0+dfsg1
 (arch=mips64el ppc64 s390x)_ZNK3mir8protobuf17ScreencastRequest3NewEv@MIR_PROTOBUF_0.26 1.8.0+dfsg1
 _ZNK3mir8protobuf17SurfaceParameters11GetTypeNameB5cxx11Ev@MIR_PROTOBUF_3 1.7
 _ZNK3mir8protobuf17SurfaceParameters12ByteSizeLongEv@MIR_PROTOBUF_3 1.7
 _ZNK3mir8protobuf17SurfaceParameters13IsInitializedEv@MIR_PROTOBUF_3 1.7
 (arch=mips64el ppc64 s390x)_ZNK3mir8protobuf17SurfaceParameters3NewEPN6google8protobuf5ArenaE@MIR_PROTOBUF_3 1.8.0+dfsg1
 (arch=mips64el ppc64 s390x)_ZNK3mir8protobuf17SurfaceParameters3NewEv@MIR_PROTOBUF_3 1.8.0+dfsg1
 _ZNK3mir8protobuf18SurfaceAspectRatio11GetTypeNameB5cxx11Ev@MIR_PROTOBUF_3 1.7
 _ZNK3mir8protobuf18SurfaceAspectRatio12ByteSizeLongEv@MIR_PROTOBUF_3 1.7
 _ZNK3mir8protobuf18SurfaceAspectRatio13IsInitializedEv@MIR_PROTOBUF_3 1.7
 (arch=mips64el ppc64 s390x)_ZNK3mir8protobuf18SurfaceAspectRatio3NewEPN6google8protobuf5ArenaE@MIR_PROTOBUF_3 1.8.0+dfsg1
 (arch=mips64el ppc64 s390x)_ZNK3mir8protobuf18SurfaceAspectRatio3NewEv@MIR_PROTOBUF_3 1.8.0+dfsg1
 _ZNK3mir8protobuf19PersistentSurfaceId11GetTypeNameB5cxx11Ev@MIR_PROTOBUF_3 1.7
 _ZNK3mir8protobuf19PersistentSurfaceId12ByteSizeLongEv@MIR_PROTOBUF_3 1.7
 _ZNK3mir8protobuf19PersistentSurfaceId13IsInitializedEv@MIR_PROTOBUF_3 1.7
 (arch=mips64el ppc64 s390x)_ZNK3mir8protobuf19PersistentSurfaceId3NewEPN6google8protobuf5ArenaE@MIR_PROTOBUF_3 1.8.0+dfsg1
 (arch=mips64el ppc64 s390x)_ZNK3mir8protobuf19PersistentSurfaceId3NewEv@MIR_PROTOBUF_3 1.8.0+dfsg1
 _ZNK3mir8protobuf19StreamConfiguration11GetTypeNameB5cxx11Ev@MIR_PROTOBUF_3 1.7
 _ZNK3mir8protobuf19StreamConfiguration12ByteSizeLongEv@MIR_PROTOBUF_3 1.7
 _ZNK3mir8protobuf19StreamConfiguration13IsInitializedEv@MIR_PROTOBUF_3 1.7
 (arch=mips64el ppc64 s390x)_ZNK3mir8protobuf19StreamConfiguration3NewEPN6google8protobuf5ArenaE@MIR_PROTOBUF_3 1.8.0+dfsg1
 (arch=mips64el ppc64 s390x)_ZNK3mir8protobuf19StreamConfiguration3NewEv@MIR_PROTOBUF_3 1.8.0+dfsg1
 _ZNK3mir8protobuf20DisplayConfiguration11GetTypeNameB5cxx11Ev@MIR_PROTOBUF_3 1.7
 _ZNK3mir8protobuf20DisplayConfiguration12ByteSizeLongEv@MIR_PROTOBUF_3 1.7
 _ZNK3mir8protobuf20DisplayConfiguration13IsInitializedEv@MIR_PROTOBUF_3 1.7
 (arch=mips64el ppc64 s390x)_ZNK3mir8protobuf20DisplayConfiguration3NewEPN6google8protobuf5ArenaE@MIR_PROTOBUF_3 1.8.0+dfsg1
 (arch=mips64el ppc64 s390x)_ZNK3mir8protobuf20DisplayConfiguration3NewEv@MIR_PROTOBUF_3 1.8.0+dfsg1
 _ZNK3mir8protobuf20PreviewConfiguration11GetTypeNameB5cxx11Ev@MIR_PROTOBUF_0.22 1.7
 _ZNK3mir8protobuf20PreviewConfiguration12ByteSizeLongEv@MIR_PROTOBUF_0.22 1.7
 _ZNK3mir8protobuf20PreviewConfiguration13IsInitializedEv@MIR_PROTOBUF_0.22 1.7
 (arch=mips64el ppc64 s390x)_ZNK3mir8protobuf20PreviewConfiguration3NewEPN6google8protobuf5ArenaE@MIR_PROTOBUF_0.22 1.8.0+dfsg1
 (arch=mips64el ppc64 s390x)_ZNK3mir8protobuf20PreviewConfiguration3NewEv@MIR_PROTOBUF_0.22 1.8.0+dfsg1
 _ZNK3mir8protobuf20RequestWithAuthority11GetTypeNameB5cxx11Ev@MIR_PROTOBUF_0.27 1.7
 _ZNK3mir8protobuf20RequestWithAuthority12ByteSizeLongEv@MIR_PROTOBUF_0.27 1.7
 _ZNK3mir8protobuf20RequestWithAuthority13IsInitializedEv@MIR_PROTOBUF_0.27 1.7
 (arch=mips64el ppc64 s390x)_ZNK3mir8protobuf20RequestWithAuthority3NewEPN6google8protobuf5ArenaE@MIR_PROTOBUF_0.27 1.8.0+dfsg1
 (arch=mips64el ppc64 s390x)_ZNK3mir8protobuf20RequestWithAuthority3NewEv@MIR_PROTOBUF_0.27 1.8.0+dfsg1
 _ZNK3mir8protobuf20ScreencastParameters11GetTypeNameB5cxx11Ev@MIR_PROTOBUF_3 1.7
 _ZNK3mir8protobuf20ScreencastParameters12ByteSizeLongEv@MIR_PROTOBUF_3 1.7
 _ZNK3mir8protobuf20ScreencastParameters13IsInitializedEv@MIR_PROTOBUF_3 1.7
 (arch=mips64el ppc64 s390x)_ZNK3mir8protobuf20ScreencastParameters3NewEPN6google8protobuf5ArenaE@MIR_PROTOBUF_3 1.8.0+dfsg1
 (arch=mips64el ppc64 s390x)_ZNK3mir8protobuf20ScreencastParameters3NewEv@MIR_PROTOBUF_3 1.8.0+dfsg1
 _ZNK3mir8protobuf20SurfaceModifications11GetTypeNameB5cxx11Ev@MIR_PROTOBUF_3 1.7
 _ZNK3mir8protobuf20SurfaceModifications12ByteSizeLongEv@MIR_PROTOBUF_3 1.7
 _ZNK3mir8protobuf20SurfaceModifications13IsInitializedEv@MIR_PROTOBUF_3 1.7
 (arch=mips64el ppc64 s390x)_ZNK3mir8protobuf20SurfaceModifications3NewEPN6google8protobuf5ArenaE@MIR_PROTOBUF_3 1.8.0+dfsg1
 (arch=mips64el ppc64 s390x)_ZNK3mir8protobuf20SurfaceModifications3NewEv@MIR_PROTOBUF_3 1.8.0+dfsg1
 _ZNK3mir8protobuf20SurfaceSpecification11GetTypeNameB5cxx11Ev@MIR_PROTOBUF_3 1.7
 _ZNK3mir8protobuf20SurfaceSpecification12ByteSizeLongEv@MIR_PROTOBUF_3 1.7
 _ZNK3mir8protobuf20SurfaceSpecification13IsInitializedEv@MIR_PROTOBUF_3 1.7
 (arch=mips64el ppc64 s390x)_ZNK3mir8protobuf20SurfaceSpecification3NewEPN6google8protobuf5ArenaE@MIR_PROTOBUF_3 1.8.0+dfsg1
 (arch=mips64el ppc64 s390x)_ZNK3mir8protobuf20SurfaceSpecification3NewEv@MIR_PROTOBUF_3 1.8.0+dfsg1
 _ZNK3mir8protobuf22BufferStreamParameters11GetTypeNameB5cxx11Ev@MIR_PROTOBUF_3 1.7
 _ZNK3mir8protobuf22BufferStreamParameters12ByteSizeLongEv@MIR_PROTOBUF_3 1.7
 _ZNK3mir8protobuf22BufferStreamParameters13IsInitializedEv@MIR_PROTOBUF_3 1.7
 (arch=mips64el ppc64 s390x)_ZNK3mir8protobuf22BufferStreamParameters3NewEPN6google8protobuf5ArenaE@MIR_PROTOBUF_3 1.8.0+dfsg1
 (arch=mips64el ppc64 s390x)_ZNK3mir8protobuf22BufferStreamParameters3NewEv@MIR_PROTOBUF_3 1.8.0+dfsg1
 _ZNK3mir8protobuf23PromptSessionParameters11GetTypeNameB5cxx11Ev@MIR_PROTOBUF_3 1.7
 _ZNK3mir8protobuf23PromptSessionParameters12ByteSizeLongEv@MIR_PROTOBUF_3 1.7
 _ZNK3mir8protobuf23PromptSessionParameters13IsInitializedEv@MIR_PROTOBUF_3 1.7
 (arch=mips64el ppc64 s390x)_ZNK3mir8protobuf23PromptSessionParameters3NewEPN6google8protobuf5ArenaE@MIR_PROTOBUF_3 1.8.0+dfsg1
 (arch=mips64el ppc64 s390x)_ZNK3mir8protobuf23PromptSessionParameters3NewEv@MIR_PROTOBUF_3 1.8.0+dfsg1
 _ZNK3mir8protobuf24PlatformOperationMessage11GetTypeNameB5cxx11Ev@MIR_PROTOBUF_3 1.7
 _ZNK3mir8protobuf24PlatformOperationMessage12ByteSizeLongEv@MIR_PROTOBUF_3 1.7
 _ZNK3mir8protobuf24PlatformOperationMessage13IsInitializedEv@MIR_PROTOBUF_3 1.7
 (arch=mips64el ppc64 s390x)_ZNK3mir8protobuf24PlatformOperationMessage3NewEPN6google8protobuf5ArenaE@MIR_PROTOBUF_3 1.8.0+dfsg1
 (arch=mips64el ppc64 s390x)_ZNK3mir8protobuf24PlatformOperationMessage3NewEv@MIR_PROTOBUF_3 1.8.0+dfsg1
 _ZNK3mir8protobuf28CoordinateTranslationRequest11GetTypeNameB5cxx11Ev@MIR_PROTOBUF_3 1.7
 _ZNK3mir8protobuf28CoordinateTranslationRequest12ByteSizeLongEv@MIR_PROTOBUF_3 1.7
 _ZNK3mir8protobuf28CoordinateTranslationRequest13IsInitializedEv@MIR_PROTOBUF_3 1.7
 (arch=mips64el ppc64 s390x)_ZNK3mir8protobuf28CoordinateTranslationRequest3NewEPN6google8protobuf5ArenaE@MIR_PROTOBUF_3 1.8.0+dfsg1
 (arch=mips64el ppc64 s390x)_ZNK3mir8protobuf28CoordinateTranslationRequest3NewEv@MIR_PROTOBUF_3 1.8.0+dfsg1
 _ZNK3mir8protobuf29CoordinateTranslationResponse11GetTypeNameB5cxx11Ev@MIR_PROTOBUF_3 1.7
 _ZNK3mir8protobuf29CoordinateTranslationResponse12ByteSizeLongEv@MIR_PROTOBUF_3 1.7
 _ZNK3mir8protobuf29CoordinateTranslationResponse13IsInitializedEv@MIR_PROTOBUF_3 1.7
 (arch=mips64el ppc64 s390x)_ZNK3mir8protobuf29CoordinateTranslationResponse3NewEPN6google8protobuf5ArenaE@MIR_PROTOBUF_3 1.8.0+dfsg1
 (arch=mips64el ppc64 s390x)_ZNK3mir8protobuf29CoordinateTranslationResponse3NewEv@MIR_PROTOBUF_3 1.8.0+dfsg1
 _ZNK3mir8protobuf4Void11GetTypeNameB5cxx11Ev@MIR_PROTOBUF_3 1.7
 _ZNK3mir8protobuf4Void12ByteSizeLongEv@MIR_PROTOBUF_3 1.7
 _ZNK3mir8protobuf4Void13IsInitializedEv@MIR_PROTOBUF_3 1.7
 (arch=mips64el ppc64 s390x)_ZNK3mir8protobuf4Void3NewEPN6google8protobuf5ArenaE@MIR_PROTOBUF_3 1.8.0+dfsg1
 (arch=mips64el ppc64 s390x)_ZNK3mir8protobuf4Void3NewEv@MIR_PROTOBUF_3 1.8.0+dfsg1
 _ZNK3mir8protobuf4wire10Invocation11GetTypeNameB5cxx11Ev@MIR_PROTOBUF_3 1.7
 _ZNK3mir8protobuf4wire10Invocation12ByteSizeLongEv@MIR_PROTOBUF_3 1.7
 _ZNK3mir8protobuf4wire10Invocation13IsInitializedEv@MIR_PROTOBUF_3 1.7
 (arch=mips64el ppc64 s390x)_ZNK3mir8protobuf4wire10Invocation3NewEPN6google8protobuf5ArenaE@MIR_PROTOBUF_3 1.8.0+dfsg1
 (arch=mips64el ppc64 s390x)_ZNK3mir8protobuf4wire10Invocation3NewEv@MIR_PROTOBUF_3 1.8.0+dfsg1
 _ZNK3mir8protobuf4wire6Result11GetTypeNameB5cxx11Ev@MIR_PROTOBUF_3 1.7
 _ZNK3mir8protobuf4wire6Result12ByteSizeLongEv@MIR_PROTOBUF_3 1.7
 _ZNK3mir8protobuf4wire6Result13IsInitializedEv@MIR_PROTOBUF_3 1.7
 (arch=mips64el ppc64 s390x)_ZNK3mir8protobuf4wire6Result3NewEPN6google8protobuf5ArenaE@MIR_PROTOBUF_3 1.8.0+dfsg1
 (arch=mips64el ppc64 s390x)_ZNK3mir8protobuf4wire6Result3NewEv@MIR_PROTOBUF_3 1.8.0+dfsg1
 _ZNK3mir8protobuf5Event11GetTypeNameB5cxx11Ev@MIR_PROTOBUF_3 1.7
 _ZNK3mir8protobuf5Event12ByteSizeLongEv@MIR_PROTOBUF_3 1.7
 _ZNK3mir8protobuf5Event13IsInitializedEv@MIR_PROTOBUF_3 1.7
 (arch=mips64el ppc64 s390x)_ZNK3mir8protobuf5Event3NewEPN6google8protobuf5ArenaE@MIR_PROTOBUF_3 1.8.0+dfsg1
 (arch=mips64el ppc64 s390x)_ZNK3mir8protobuf5Event3NewEv@MIR_PROTOBUF_3 1.8.0+dfsg1
 _ZNK3mir8protobuf6Buffer11GetTypeNameB5cxx11Ev@MIR_PROTOBUF_3 1.7
 _ZNK3mir8protobuf6Buffer12ByteSizeLongEv@MIR_PROTOBUF_3 1.7
 _ZNK3mir8protobuf6Buffer13IsInitializedEv@MIR_PROTOBUF_3 1.7
 (arch=mips64el ppc64 s390x)_ZNK3mir8protobuf6Buffer3NewEPN6google8protobuf5ArenaE@MIR_PROTOBUF_3 1.8.0+dfsg1
 (arch=mips64el ppc64 s390x)_ZNK3mir8protobuf6Buffer3NewEv@MIR_PROTOBUF_3 1.8.0+dfsg1
 _ZNK3mir8protobuf6Cookie11GetTypeNameB5cxx11Ev@MIR_PROTOBUF_3 1.7
 _ZNK3mir8protobuf6Cookie12ByteSizeLongEv@MIR_PROTOBUF_3 1.7
 _ZNK3mir8protobuf6Cookie13IsInitializedEv@MIR_PROTOBUF_3 1.7
 (arch=mips64el ppc64 s390x)_ZNK3mir8protobuf6Cookie3NewEPN6google8protobuf5ArenaE@MIR_PROTOBUF_3 1.8.0+dfsg1
 (arch=mips64el ppc64 s390x)_ZNK3mir8protobuf6Cookie3NewEv@MIR_PROTOBUF_3 1.8.0+dfsg1
 _ZNK3mir8protobuf7Surface11GetTypeNameB5cxx11Ev@MIR_PROTOBUF_3 1.7
 _ZNK3mir8protobuf7Surface12ByteSizeLongEv@MIR_PROTOBUF_3 1.7
 _ZNK3mir8protobuf7Surface13IsInitializedEv@MIR_PROTOBUF_3 1.7
 (arch=mips64el ppc64 s390x)_ZNK3mir8protobuf7Surface3NewEPN6google8protobuf5ArenaE@MIR_PROTOBUF_3 1.8.0+dfsg1
 (arch=mips64el ppc64 s390x)_ZNK3mir8protobuf7Surface3NewEv@MIR_PROTOBUF_3 1.8.0+dfsg1
 _ZNK3mir8protobuf8Platform11GetTypeNameB5cxx11Ev@MIR_PROTOBUF_3 1.7
 _ZNK3mir8protobuf8Platform12ByteSizeLongEv@MIR_PROTOBUF_3 1.7
 _ZNK3mir8protobuf8Platform13IsInitializedEv@MIR_PROTOBUF_3 1.7
 (arch=mips64el ppc64 s390x)_ZNK3mir8protobuf8Platform3NewEPN6google8protobuf5ArenaE@MIR_PROTOBUF_3 1.8.0+dfsg1
 (arch=mips64el ppc64 s390x)_ZNK3mir8protobuf8Platform3NewEv@MIR_PROTOBUF_3 1.8.0+dfsg1
 _ZNK3mir8protobuf8SocketFD11GetTypeNameB5cxx11Ev@MIR_PROTOBUF_3 1.7
 _ZNK3mir8protobuf8SocketFD12ByteSizeLongEv@MIR_PROTOBUF_3 1.7
 _ZNK3mir8protobuf8SocketFD13IsInitializedEv@MIR_PROTOBUF_3 1.7
 (arch=mips64el ppc64 s390x)_ZNK3mir8protobuf8SocketFD3NewEPN6google8protobuf5ArenaE@MIR_PROTOBUF_3 1.8.0+dfsg1
 (arch=mips64el ppc64 s390x)_ZNK3mir8protobuf8SocketFD3NewEv@MIR_PROTOBUF_3 1.8.0+dfsg1
 _ZNK3mir8protobuf9Extension11GetTypeNameB5cxx11Ev@MIR_PROTOBUF_0.27 1.7
 _ZNK3mir8protobuf9Extension12ByteSizeLongEv@MIR_PROTOBUF_0.27 1.7
 _ZNK3mir8protobuf9Extension13IsInitializedEv@MIR_PROTOBUF_0.27 1.7
 (arch=mips64el ppc64 s390x)_ZNK3mir8protobuf9Extension3NewEPN6google8protobuf5ArenaE@MIR_PROTOBUF_0.27 1.8.0+dfsg1
 (arch=mips64el ppc64 s390x)_ZNK3mir8protobuf9Extension3NewEv@MIR_PROTOBUF_0.27 1.8.0+dfsg1
 _ZNK3mir8protobuf9PingEvent11GetTypeNameB5cxx11Ev@MIR_PROTOBUF_3 1.7
 _ZNK3mir8protobuf9PingEvent12ByteSizeLongEv@MIR_PROTOBUF_3 1.7
 _ZNK3mir8protobuf9PingEvent13IsInitializedEv@MIR_PROTOBUF_3 1.7
 (arch=mips64el ppc64 s390x)_ZNK3mir8protobuf9PingEvent3NewEPN6google8protobuf5ArenaE@MIR_PROTOBUF_3 1.8.0+dfsg1
 (arch=mips64el ppc64 s390x)_ZNK3mir8protobuf9PingEvent3NewEv@MIR_PROTOBUF_3 1.8.0+dfsg1
 _ZNK3mir8protobuf9Rectangle11GetTypeNameB5cxx11Ev@MIR_PROTOBUF_3 1.7
 _ZNK3mir8protobuf9Rectangle12ByteSizeLongEv@MIR_PROTOBUF_3 1.7
 _ZNK3mir8protobuf9Rectangle13IsInitializedEv@MIR_PROTOBUF_3 1.7
 (arch=mips64el ppc64 s390x)_ZNK3mir8protobuf9Rectangle3NewEPN6google8protobuf5ArenaE@MIR_PROTOBUF_3 1.8.0+dfsg1
 (arch=mips64el ppc64 s390x)_ZNK3mir8protobuf9Rectangle3NewEv@MIR_PROTOBUF_3 1.8.0+dfsg1
 _ZNK3mir8protobuf9SurfaceId11GetTypeNameB5cxx11Ev@MIR_PROTOBUF_3 1.7
 _ZNK3mir8protobuf9SurfaceId12ByteSizeLongEv@MIR_PROTOBUF_3 1.7
 _ZNK3mir8protobuf9SurfaceId13IsInitializedEv@MIR_PROTOBUF_3 1.7
 (arch=mips64el ppc64 s390x)_ZNK3mir8protobuf9SurfaceId3NewEPN6google8protobuf5ArenaE@MIR_PROTOBUF_3 1.8.0+dfsg1
 (arch=mips64el ppc64 s390x)_ZNK3mir8protobuf9SurfaceId3NewEv@MIR_PROTOBUF_3 1.8.0+dfsg1
 _ZTIN3mir8protobuf10ConnectionE@MIR_PROTOBUF_3 1.7
 _ZTIN3mir8protobuf10ScreencastE@MIR_PROTOBUF_3 1.7
 _ZTIN3mir8protobuf11DisplayCardE@MIR_PROTOBUF_3 1.7
 _ZTIN3mir8protobuf11DisplayModeE@MIR_PROTOBUF_3 1.7
 _ZTIN3mir8protobuf12BufferStreamE@MIR_PROTOBUF_3 1.7
 _ZTIN3mir8protobuf12InputDevicesE@MIR_PROTOBUF_0.26 1.7
 _ZTIN3mir8protobuf12ScreencastIdE@MIR_PROTOBUF_3 1.7
 _ZTIN3mir8protobuf13BufferReleaseE@MIR_PROTOBUF_3 1.7
 _ZTIN3mir8protobuf13BufferRequestE@MIR_PROTOBUF_3 1.7
 _ZTIN3mir8protobuf13CursorSettingE@MIR_PROTOBUF_3 1.7
 _ZTIN3mir8protobuf13DisplayOutputE@MIR_PROTOBUF_3 1.7
 _ZTIN3mir8protobuf13EventSequenceE@MIR_PROTOBUF_3 1.7
 _ZTIN3mir8protobuf13PromptSessionE@MIR_PROTOBUF_0.26 1.7
 _ZTIN3mir8protobuf14BufferStreamIdE@MIR_PROTOBUF_3 1.7
 _ZTIN3mir8protobuf14LifecycleEventE@MIR_PROTOBUF_3 1.7
 _ZTIN3mir8protobuf14SurfaceSettingE@MIR_PROTOBUF_3 1.7
 _ZTIN3mir8protobuf15InputDeviceInfoE@MIR_PROTOBUF_3 1.7
 _ZTIN3mir8protobuf15SocketFDRequestE@MIR_PROTOBUF_3 1.7
 _ZTIN3mir8protobuf15StructuredErrorE@MIR_PROTOBUF_UBSAN 1.7
 _ZTIN3mir8protobuf16BufferAllocationE@MIR_PROTOBUF_3 1.7
 _ZTIN3mir8protobuf16ModulePropertiesE@MIR_PROTOBUF_3v19 1.7
 _ZTIN3mir8protobuf17ConnectParametersE@MIR_PROTOBUF_3 1.7
 _ZTIN3mir8protobuf17ScreencastRequestE@MIR_PROTOBUF_0.26 1.7
 _ZTIN3mir8protobuf17SurfaceParametersE@MIR_PROTOBUF_3 1.7
 _ZTIN3mir8protobuf18SurfaceAspectRatioE@MIR_PROTOBUF_3 1.7
 _ZTIN3mir8protobuf19PersistentSurfaceIdE@MIR_PROTOBUF_3 1.7
 _ZTIN3mir8protobuf19StreamConfigurationE@MIR_PROTOBUF_3 1.7
 _ZTIN3mir8protobuf20DisplayConfigurationE@MIR_PROTOBUF_3 1.7
 _ZTIN3mir8protobuf20PointerConfigurationE@MIR_PROTOBUF_UBSAN 1.7
 _ZTIN3mir8protobuf20PreviewConfigurationE@MIR_PROTOBUF_0.22 1.7
 _ZTIN3mir8protobuf20RequestWithAuthorityE@MIR_PROTOBUF_0.27 1.7
 _ZTIN3mir8protobuf20ScreencastParametersE@MIR_PROTOBUF_3 1.7
 _ZTIN3mir8protobuf20SurfaceModificationsE@MIR_PROTOBUF_3 1.7
 _ZTIN3mir8protobuf20SurfaceSpecificationE@MIR_PROTOBUF_3 1.7
 _ZTIN3mir8protobuf21TouchpadConfigurationE@MIR_PROTOBUF_UBSAN 1.7
 _ZTIN3mir8protobuf22BufferStreamParametersE@MIR_PROTOBUF_3 1.7
 _ZTIN3mir8protobuf23PromptSessionParametersE@MIR_PROTOBUF_3 1.7
 _ZTIN3mir8protobuf24PlatformOperationMessageE@MIR_PROTOBUF_3 1.7
 _ZTIN3mir8protobuf25InputConfigurationRequestE@MIR_PROTOBUF_UBSAN 1.7
 _ZTIN3mir8protobuf28CoordinateTranslationRequestE@MIR_PROTOBUF_3 1.7
 _ZTIN3mir8protobuf29CoordinateTranslationResponseE@MIR_PROTOBUF_3 1.7
 _ZTIN3mir8protobuf4VoidE@MIR_PROTOBUF_3 1.7
 _ZTIN3mir8protobuf4wire10InvocationE@MIR_PROTOBUF_3 1.7
 _ZTIN3mir8protobuf4wire6ResultE@MIR_PROTOBUF_3 1.7
 _ZTIN3mir8protobuf5EventE@MIR_PROTOBUF_3 1.7
 _ZTIN3mir8protobuf6BufferE@MIR_PROTOBUF_3 1.7
 _ZTIN3mir8protobuf6CookieE@MIR_PROTOBUF_3 1.7
 _ZTIN3mir8protobuf7SurfaceE@MIR_PROTOBUF_3 1.7
 _ZTIN3mir8protobuf8PlatformE@MIR_PROTOBUF_3 1.7
 _ZTIN3mir8protobuf8SocketFDE@MIR_PROTOBUF_3 1.7
 _ZTIN3mir8protobuf9ExtensionE@MIR_PROTOBUF_0.27 1.7
 _ZTIN3mir8protobuf9PingEventE@MIR_PROTOBUF_3 1.7
 _ZTIN3mir8protobuf9RectangleE@MIR_PROTOBUF_3 1.7
 _ZTIN3mir8protobuf9SurfaceIdE@MIR_PROTOBUF_3 1.7
 _ZTVN3mir8protobuf10ConnectionE@MIR_PROTOBUF_3 1.7
 _ZTVN3mir8protobuf10ScreencastE@MIR_PROTOBUF_3 1.7
 _ZTVN3mir8protobuf11DisplayCardE@MIR_PROTOBUF_3 1.7
 _ZTVN3mir8protobuf11DisplayModeE@MIR_PROTOBUF_3 1.7
 _ZTVN3mir8protobuf12BufferStreamE@MIR_PROTOBUF_3 1.7
 _ZTVN3mir8protobuf12InputDevicesE@MIR_PROTOBUF_0.26 1.7
 _ZTVN3mir8protobuf12ScreencastIdE@MIR_PROTOBUF_3 1.7
 _ZTVN3mir8protobuf13BufferReleaseE@MIR_PROTOBUF_3 1.7
 _ZTVN3mir8protobuf13BufferRequestE@MIR_PROTOBUF_3 1.7
 _ZTVN3mir8protobuf13CursorSettingE@MIR_PROTOBUF_3 1.7
 _ZTVN3mir8protobuf13DisplayOutputE@MIR_PROTOBUF_3 1.7
 _ZTVN3mir8protobuf13EventSequenceE@MIR_PROTOBUF_3 1.7
 _ZTVN3mir8protobuf13PromptSessionE@MIR_PROTOBUF_0.26 1.7
 _ZTVN3mir8protobuf14BufferStreamIdE@MIR_PROTOBUF_3 1.7
 _ZTVN3mir8protobuf14LifecycleEventE@MIR_PROTOBUF_3 1.7
 _ZTVN3mir8protobuf14SurfaceSettingE@MIR_PROTOBUF_3 1.7
 _ZTVN3mir8protobuf15InputDeviceInfoE@MIR_PROTOBUF_3 1.7
 _ZTVN3mir8protobuf15SocketFDRequestE@MIR_PROTOBUF_3 1.7
 _ZTVN3mir8protobuf16BufferAllocationE@MIR_PROTOBUF_3 1.7
 _ZTVN3mir8protobuf17ConnectParametersE@MIR_PROTOBUF_3 1.7
 _ZTVN3mir8protobuf17ScreencastRequestE@MIR_PROTOBUF_0.26 1.7
 _ZTVN3mir8protobuf17SurfaceParametersE@MIR_PROTOBUF_3 1.7
 _ZTVN3mir8protobuf18SurfaceAspectRatioE@MIR_PROTOBUF_3 1.7
 _ZTVN3mir8protobuf19PersistentSurfaceIdE@MIR_PROTOBUF_3 1.7
 _ZTVN3mir8protobuf19StreamConfigurationE@MIR_PROTOBUF_3 1.7
 _ZTVN3mir8protobuf20DisplayConfigurationE@MIR_PROTOBUF_3 1.7
 _ZTVN3mir8protobuf20PreviewConfigurationE@MIR_PROTOBUF_0.22 1.7
 _ZTVN3mir8protobuf20RequestWithAuthorityE@MIR_PROTOBUF_0.27 1.7
 _ZTVN3mir8protobuf20ScreencastParametersE@MIR_PROTOBUF_3 1.7
 _ZTVN3mir8protobuf20SurfaceModificationsE@MIR_PROTOBUF_3 1.7
 _ZTVN3mir8protobuf20SurfaceSpecificationE@MIR_PROTOBUF_3 1.7
 _ZTVN3mir8protobuf22BufferStreamParametersE@MIR_PROTOBUF_3 1.7
 _ZTVN3mir8protobuf23PromptSessionParametersE@MIR_PROTOBUF_3 1.7
 _ZTVN3mir8protobuf24PlatformOperationMessageE@MIR_PROTOBUF_3 1.7
 _ZTVN3mir8protobuf28CoordinateTranslationRequestE@MIR_PROTOBUF_3 1.7
 _ZTVN3mir8protobuf29CoordinateTranslationResponseE@MIR_PROTOBUF_3 1.7
 _ZTVN3mir8protobuf4VoidE@MIR_PROTOBUF_3 1.7
 _ZTVN3mir8protobuf4wire10InvocationE@MIR_PROTOBUF_3 1.7
 _ZTVN3mir8protobuf4wire6ResultE@MIR_PROTOBUF_3 1.7
 _ZTVN3mir8protobuf5EventE@MIR_PROTOBUF_3 1.7
 _ZTVN3mir8protobuf6BufferE@MIR_PROTOBUF_3 1.7
 _ZTVN3mir8protobuf6CookieE@MIR_PROTOBUF_3 1.7
 _ZTVN3mir8protobuf7SurfaceE@MIR_PROTOBUF_3 1.7
 _ZTVN3mir8protobuf8PlatformE@MIR_PROTOBUF_3 1.7
 _ZTVN3mir8protobuf8SocketFDE@MIR_PROTOBUF_3 1.7
 _ZTVN3mir8protobuf9ExtensionE@MIR_PROTOBUF_0.27 1.7
 _ZTVN3mir8protobuf9PingEventE@MIR_PROTOBUF_3 1.7
 _ZTVN3mir8protobuf9RectangleE@MIR_PROTOBUF_3 1.7
 _ZTVN3mir8protobuf9SurfaceIdE@MIR_PROTOBUF_3 1.7
