# SymbolsHelper-Confirmed: 1.8.0+dfsg1 amd64 arm64 armel armhf hppa i386 m68k mips64el mipsel powerpc ppc64 ppc64el riscv64 s390x sh4 sparc64 x32
libmiral.so.3 libmiral3 #MINVER#
* Build-Depends-Package: libmiral-dev
 MIRAL_2.0@MIRAL_2.0 2.0
 MIRAL_2.1@MIRAL_2.1 2.1
 MIRAL_2.2@MIRAL_2.2 2.2
 MIRAL_2.3@MIRAL_2.3 2.3
 MIRAL_2.4@MIRAL_2.4 2.4
 MIRAL_2.5@MIRAL_2.5 2.5
 MIRAL_2.6@MIRAL_2.6 2.6
 MIRAL_2.7@MIRAL_2.7 2.7
 MIRAL_2.8@MIRAL_2.8 2.8
 MIRAL_2.9@MIRAL_2.9 2.9
 _ZN5miral10WindowInfo10height_incEN3mir8geometry6detail10IntWrapperINS2_9DeltaYTagEEE@MIRAL_2.0 2.0
 _ZN5miral10WindowInfo10max_aspectENS_19WindowSpecification11AspectRatioE@MIRAL_2.0 2.0
 _ZN5miral10WindowInfo10max_heightEN3mir8geometry6detail10IntWrapperINS2_9HeightTagEEE@MIRAL_2.0 2.0
 _ZN5miral10WindowInfo10min_aspectENS_19WindowSpecification11AspectRatioE@MIRAL_2.0 2.0
 _ZN5miral10WindowInfo10min_heightEN3mir8geometry6detail10IntWrapperINS2_9HeightTagEEE@MIRAL_2.0 2.0
 _ZN5miral10WindowInfo11depth_layerE13MirDepthLayer@MIRAL_2.6 2.6
 _ZN5miral10WindowInfo12remove_childERKNS_6WindowE@MIRAL_2.0 2.0
 _ZN5miral10WindowInfo12restore_rectERKN3mir8geometry9RectangleE@MIRAL_2.0 2.0
 _ZN5miral10WindowInfo12shell_chromeE14MirShellChrome@MIRAL_2.0 2.0
 _ZN5miral10WindowInfo14application_idERKNSt7__cxx1112basic_stringIcSt11char_traitsIcESaIcEEE@MIRAL_2.8 2.8
 _ZN5miral10WindowInfo14attached_edgesE19MirPlacementGravity@MIRAL_2.7 2.7
 _ZN5miral10WindowInfo14exclusive_rectERKN3mir14optional_valueINS1_8geometry9RectangleEEE@MIRAL_2.7 2.7
 _ZN5miral10WindowInfo14needs_titlebarE13MirWindowType@MIRAL_2.0 2.0
 _ZN5miral10WindowInfo15confine_pointerE26MirPointerConfinementState@MIRAL_2.0 2.0
 _ZN5miral10WindowInfo21preferred_orientationE18MirOrientationMode@MIRAL_2.0 2.0
 _ZN5miral10WindowInfo4nameERKNSt7__cxx1112basic_stringIcSt11char_traitsIcESaIcEEE@MIRAL_2.0 2.0
 _ZN5miral10WindowInfo4typeE13MirWindowType@MIRAL_2.0 2.0
 _ZN5miral10WindowInfo5stateE14MirWindowState@MIRAL_2.0 2.0
 _ZN5miral10WindowInfo6parentERKNS_6WindowE@MIRAL_2.0 2.0
 _ZN5miral10WindowInfo8userdataESt10shared_ptrIvE@MIRAL_2.0 2.0
 _ZN5miral10WindowInfo9add_childERKNS_6WindowE@MIRAL_2.0 2.0
 _ZN5miral10WindowInfo9clip_areaERKN3mir14optional_valueINS1_8geometry9RectangleEEE@MIRAL_2.8 2.8
 _ZN5miral10WindowInfo9max_widthEN3mir8geometry6detail10IntWrapperINS2_8WidthTagEEE@MIRAL_2.0 2.0
 _ZN5miral10WindowInfo9min_widthEN3mir8geometry6detail10IntWrapperINS2_8WidthTagEEE@MIRAL_2.0 2.0
 _ZN5miral10WindowInfo9output_idEN3mir14optional_valueIiEE@MIRAL_2.0 2.0
 _ZN5miral10WindowInfo9width_incEN3mir8geometry6detail10IntWrapperINS2_9DeltaXTagEEE@MIRAL_2.0 2.0
 _ZN5miral10WindowInfoC1ERKNS_6WindowERKNS_19WindowSpecificationE@MIRAL_2.0 2.0
 _ZN5miral10WindowInfoC1ERKS0_@MIRAL_2.0 2.0
 _ZN5miral10WindowInfoC1Ev@MIRAL_2.0 2.0
 _ZN5miral10WindowInfoC2ERKNS_6WindowERKNS_19WindowSpecificationE@MIRAL_2.0 2.0
 _ZN5miral10WindowInfoC2ERKS0_@MIRAL_2.0 2.0
 _ZN5miral10WindowInfoC2Ev@MIRAL_2.0 2.0
 _ZN5miral10WindowInfoD1Ev@MIRAL_2.0 2.0
 _ZN5miral10WindowInfoD2Ev@MIRAL_2.0 2.0
 _ZN5miral10WindowInfoaSERKS0_@MIRAL_2.0 2.0
 _ZN5miral10X11SupportC1ERKS0_@MIRAL_2.4 2.4
 _ZN5miral10X11SupportC1Ev@MIRAL_2.4 2.4
 _ZN5miral10X11SupportC2ERKS0_@MIRAL_2.4 2.4
 _ZN5miral10X11SupportC2Ev@MIRAL_2.4 2.4
 _ZN5miral10X11SupportD1Ev@MIRAL_2.4 2.4
 _ZN5miral10X11SupportD2Ev@MIRAL_2.4 2.4
 _ZN5miral10X11SupportaSERKS0_@MIRAL_2.4 2.4
 _ZN5miral10window_forEP11wl_resource@MIRAL_2.5 2.5
 _ZN5miral11CursorThemeC1ERKNSt7__cxx1112basic_stringIcSt11char_traitsIcESaIcEEE@MIRAL_2.0 2.0
 _ZN5miral11CursorThemeC2ERKNSt7__cxx1112basic_stringIcSt11char_traitsIcESaIcEEE@MIRAL_2.0 2.0
 _ZN5miral11CursorThemeD1Ev@MIRAL_2.0 2.0
 _ZN5miral11CursorThemeD2Ev@MIRAL_2.0 2.0
 _ZN5miral13SetTerminatorC1ERKSt8functionIFviEE@MIRAL_2.0 2.0
 _ZN5miral13SetTerminatorC2ERKSt8functionIFviEE@MIRAL_2.0 2.0
 _ZN5miral13SetTerminatorD1Ev@MIRAL_2.0 2.0
 _ZN5miral13SetTerminatorD2Ev@MIRAL_2.0 2.0
 _ZN5miral14DebugExtension6enableEv@MIRAL_2.0 2.0
 _ZN5miral14DebugExtension7disableEv@MIRAL_2.0 2.0
 _ZN5miral14DebugExtensionC1ERKS0_@MIRAL_2.0 2.0
 _ZN5miral14DebugExtensionC1Ev@MIRAL_2.0 2.0
 _ZN5miral14DebugExtensionC2ERKS0_@MIRAL_2.0 2.0
 _ZN5miral14DebugExtensionC2Ev@MIRAL_2.0 2.0
 _ZN5miral14DebugExtensionaSERKS0_@MIRAL_2.0 2.0
 _ZN5miral15AddInitCallbackC1ERKSt8functionIFvvEE@MIRAL_2.0 2.0
 _ZN5miral15AddInitCallbackC2ERKSt8functionIFvvEE@MIRAL_2.0 2.0
 _ZN5miral15AddInitCallbackD1Ev@MIRAL_2.0 2.0
 _ZN5miral15AddInitCallbackD2Ev@MIRAL_2.0 2.0
 _ZN5miral15ApplicationInfo10add_windowERKNS_6WindowE@MIRAL_2.0 2.0
 _ZN5miral15ApplicationInfo13remove_windowERKNS_6WindowE@MIRAL_2.0 2.0
 _ZN5miral15ApplicationInfo8userdataESt10shared_ptrIvE@MIRAL_2.0 2.0
 _ZN5miral15ApplicationInfoC1ERKS0_@MIRAL_2.0 2.0
 _ZN5miral15ApplicationInfoC1ERKSt10shared_ptrIN3mir5scene7SessionEE@MIRAL_2.0 2.0
 _ZN5miral15ApplicationInfoC1Ev@MIRAL_2.0 2.0
 _ZN5miral15ApplicationInfoC2ERKS0_@MIRAL_2.0 2.0
 _ZN5miral15ApplicationInfoC2ERKSt10shared_ptrIN3mir5scene7SessionEE@MIRAL_2.0 2.0
 _ZN5miral15ApplicationInfoC2Ev@MIRAL_2.0 2.0
 _ZN5miral15ApplicationInfoD1Ev@MIRAL_2.0 2.0
 _ZN5miral15ApplicationInfoD2Ev@MIRAL_2.0 2.0
 _ZN5miral15ApplicationInfoaSERKS0_@MIRAL_2.0 2.0
 _ZN5miral15application_forEP11wl_resource@MIRAL_2.5 2.5
 _ZN5miral15application_forEP9wl_client@MIRAL_2.5 2.5
 _ZN5miral17AppendEventFilterC1ERKSt8functionIFiPK8MirEventEE@MIRAL_2.0 2.0
 _ZN5miral17AppendEventFilterC2ERKSt8functionIFiPK8MirEventEE@MIRAL_2.0 2.0
 _ZN5miral17AppendEventFilterclERN3mir6ServerE@MIRAL_2.0 2.0
 _ZN5miral17CommandLineOptionC1ERKS0_@MIRAL_2.0 2.0
 _ZN5miral17CommandLineOptionC1ESt8functionIFvRKN3mir14optional_valueINSt7__cxx1112basic_stringIcSt11char_traitsIcESaIcEEEEEEERKS9_SG_@MIRAL_2.0 2.0
 _ZN5miral17CommandLineOptionC1ESt8functionIFvRKN3mir14optional_valueIbEEEERKNSt7__cxx1112basic_stringIcSt11char_traitsIcESaIcEEESG_@MIRAL_2.0 2.0
 _ZN5miral17CommandLineOptionC1ESt8functionIFvRKN3mir14optional_valueIiEEEERKNSt7__cxx1112basic_stringIcSt11char_traitsIcESaIcEEESG_@MIRAL_2.0 2.0
 _ZN5miral17CommandLineOptionC1ESt8functionIFvRKNSt7__cxx1112basic_stringIcSt11char_traitsIcESaIcEEEEES9_S9_PKc@MIRAL_2.0 2.0
 _ZN5miral17CommandLineOptionC1ESt8functionIFvRKNSt7__cxx1112basic_stringIcSt11char_traitsIcESaIcEEEEES9_S9_S9_@MIRAL_2.0 2.0
 _ZN5miral17CommandLineOptionC1ESt8functionIFvbEERKNSt7__cxx1112basic_stringIcSt11char_traitsIcESaIcEEESB_@MIRAL_2.0 2.0
 _ZN5miral17CommandLineOptionC1ESt8functionIFvbEERKNSt7__cxx1112basic_stringIcSt11char_traitsIcESaIcEEESB_b@MIRAL_2.0 2.0
 _ZN5miral17CommandLineOptionC1ESt8functionIFvdEERKNSt7__cxx1112basic_stringIcSt11char_traitsIcESaIcEEESB_d@MIRAL_2.0 2.0
 _ZN5miral17CommandLineOptionC1ESt8functionIFviEERKNSt7__cxx1112basic_stringIcSt11char_traitsIcESaIcEEESB_i@MIRAL_2.0 2.0
 _ZN5miral17CommandLineOptionC2ERKS0_@MIRAL_2.0 2.0
 _ZN5miral17CommandLineOptionC2ESt8functionIFvRKN3mir14optional_valueINSt7__cxx1112basic_stringIcSt11char_traitsIcESaIcEEEEEEERKS9_SG_@MIRAL_2.0 2.0
 _ZN5miral17CommandLineOptionC2ESt8functionIFvRKN3mir14optional_valueIbEEEERKNSt7__cxx1112basic_stringIcSt11char_traitsIcESaIcEEESG_@MIRAL_2.0 2.0
 _ZN5miral17CommandLineOptionC2ESt8functionIFvRKN3mir14optional_valueIiEEEERKNSt7__cxx1112basic_stringIcSt11char_traitsIcESaIcEEESG_@MIRAL_2.0 2.0
 _ZN5miral17CommandLineOptionC2ESt8functionIFvRKNSt7__cxx1112basic_stringIcSt11char_traitsIcESaIcEEEEES9_S9_PKc@MIRAL_2.0 2.0
 _ZN5miral17CommandLineOptionC2ESt8functionIFvRKNSt7__cxx1112basic_stringIcSt11char_traitsIcESaIcEEEEES9_S9_S9_@MIRAL_2.0 2.0
 _ZN5miral17CommandLineOptionC2ESt8functionIFvbEERKNSt7__cxx1112basic_stringIcSt11char_traitsIcESaIcEEESB_@MIRAL_2.0 2.0
 _ZN5miral17CommandLineOptionC2ESt8functionIFvbEERKNSt7__cxx1112basic_stringIcSt11char_traitsIcESaIcEEESB_b@MIRAL_2.0 2.0
 _ZN5miral17CommandLineOptionC2ESt8functionIFvdEERKNSt7__cxx1112basic_stringIcSt11char_traitsIcESaIcEEESB_d@MIRAL_2.0 2.0
 _ZN5miral17CommandLineOptionC2ESt8functionIFviEERKNSt7__cxx1112basic_stringIcSt11char_traitsIcESaIcEEESB_i@MIRAL_2.0 2.0
 _ZN5miral17CommandLineOptionD1Ev@MIRAL_2.0 2.0
 _ZN5miral17CommandLineOptionD2Ev@MIRAL_2.0 2.0
 _ZN5miral17CommandLineOptionaSERKS0_@MIRAL_2.0 2.0
 _ZN5miral17WaylandExtensions10set_filterERKSt8functionIFbRKSt10shared_ptrIN3mir5scene7SessionEEPKcEE@MIRAL_2.5 2.5
 _ZN5miral17WaylandExtensions11recommendedB5cxx11Ev@MIRAL_2.6 2.6
 _ZN5miral17WaylandExtensions13add_extensionERKNS0_7BuilderE@MIRAL_2.5 2.5
 _ZN5miral17WaylandExtensions19zwlr_layer_shell_v1E@MIRAL_2.6 2.6
 _ZN5miral17WaylandExtensions22recommended_extensionsB5cxx11Ev@MIRAL_2.5 2.5
 _ZN5miral17WaylandExtensions22zxdg_output_manager_v1E@MIRAL_2.6 2.6
 _ZN5miral17WaylandExtensions33add_extension_disabled_by_defaultERKNS0_7BuilderE@MIRAL_2.5 2.5
 _ZN5miral17WaylandExtensions6enableENSt7__cxx1112basic_stringIcSt11char_traitsIcESaIcEEE@MIRAL_2.6 2.6
 _ZN5miral17WaylandExtensions7disableENSt7__cxx1112basic_stringIcSt11char_traitsIcESaIcEEE@MIRAL_2.6 2.6
 _ZN5miral17WaylandExtensions9supportedB5cxx11Ev@MIRAL_2.6 2.6
 _ZN5miral17WaylandExtensionsC1ERKNSt7__cxx1112basic_stringIcSt11char_traitsIcESaIcEEE@MIRAL_2.4 2.4
 _ZN5miral17WaylandExtensionsC1ERKS0_@MIRAL_2.4 2.4
 _ZN5miral17WaylandExtensionsC1Ev@MIRAL_2.4 2.4
 _ZN5miral17WaylandExtensionsC2ERKNSt7__cxx1112basic_stringIcSt11char_traitsIcESaIcEEE@MIRAL_2.4 2.4
 _ZN5miral17WaylandExtensionsC2ERKS0_@MIRAL_2.4 2.4
 _ZN5miral17WaylandExtensionsC2Ev@MIRAL_2.4 2.4
 _ZN5miral17WaylandExtensionsD1Ev@MIRAL_2.4 2.4
 _ZN5miral17WaylandExtensionsD2Ev@MIRAL_2.4 2.4
 _ZN5miral17WaylandExtensionsaSERKS0_@MIRAL_2.4 2.4
 _ZN5miral18WindowManagerTools10raise_treeERKNS_6WindowE@MIRAL_2.0 2.0
 _ZN5miral18WindowManagerTools11drag_windowERKNS_6WindowEN3mir8geometry12DisplacementE@MIRAL_2.0 2.0
 _ZN5miral18WindowManagerTools11force_closeERKNS_6WindowE@MIRAL_2.0 2.0
 _ZN5miral18WindowManagerTools13active_outputEv@MIRAL_2.0 2.0
 _ZN5miral18WindowManagerTools13modify_windowERKNS_6WindowERKNS_19WindowSpecificationE@MIRAL_2.0 2.0
 _ZN5miral18WindowManagerTools13modify_windowERNS_10WindowInfoERKNS_19WindowSpecificationE@MIRAL_2.0 2.0
 _ZN5miral18WindowManagerTools16create_workspaceEv@MIRAL_2.0 2.0
 _ZN5miral18WindowManagerTools16find_applicationERKSt8functionIFbRKNS_15ApplicationInfoEEE@MIRAL_2.0 2.0
 _ZN5miral18WindowManagerTools17end_drag_and_dropEv@MIRAL_2.0 2.0
 _ZN5miral18WindowManagerTools17invoke_under_lockERKSt8functionIFvvEE@MIRAL_2.0 2.0
 _ZN5miral18WindowManagerTools18drag_active_windowEN3mir8geometry12DisplacementE@MIRAL_2.0 2.0
 _ZN5miral18WindowManagerTools19ask_client_to_closeERKNS_6WindowE@MIRAL_2.0 2.0
 _ZN5miral18WindowManagerTools19start_drag_and_dropERNS_10WindowInfoERKSt6vectorIhSaIhEE@MIRAL_2.0 2.0
 _ZN5miral18WindowManagerTools20for_each_applicationERKSt8functionIFvRNS_15ApplicationInfoEEE@MIRAL_2.0 2.0
 _ZN5miral18WindowManagerTools20select_active_windowERKNS_6WindowE@MIRAL_2.0 2.0
 _ZN5miral18WindowManagerTools21add_tree_to_workspaceERKNS_6WindowERKSt10shared_ptrINS_9WorkspaceEE@MIRAL_2.0 2.0
 _ZN5miral18WindowManagerTools22focus_next_applicationEv@MIRAL_2.0 2.0
 _ZN5miral18WindowManagerTools22focus_prev_applicationEv@MIRAL_2.5 2.5
 _ZN5miral18WindowManagerTools26remove_tree_from_workspaceERKNS_6WindowERKSt10shared_ptrINS_9WorkspaceEE@MIRAL_2.0 2.0
 (optional=templinst)_ZN5miral18WindowManagerTools28for_each_window_in_workspaceERKSt10shared_ptrINS_9WorkspaceEERKSt8functionIFvRKNS_6WindowEEE@MIRAL_2.0 2.0
 _ZN5miral18WindowManagerTools29focus_next_within_applicationEv@MIRAL_2.0 2.0
 _ZN5miral18WindowManagerTools29focus_prev_within_applicationEv@MIRAL_2.0 2.0
 _ZN5miral18WindowManagerTools29for_each_workspace_containingERKNS_6WindowERKSt8functionIFvRKSt10shared_ptrINS_9WorkspaceEEEE@MIRAL_2.0 2.0
 _ZN5miral18WindowManagerTools35move_workspace_content_to_workspaceERKSt10shared_ptrINS_9WorkspaceEES5_@MIRAL_2.0 2.0
 _ZN5miral18WindowManagerToolsC1EPNS_32WindowManagerToolsImplementationE@MIRAL_2.0 2.0
 _ZN5miral18WindowManagerToolsC1ERKS0_@MIRAL_2.0 2.0
 _ZN5miral18WindowManagerToolsC2EPNS_32WindowManagerToolsImplementationE@MIRAL_2.0 2.0
 _ZN5miral18WindowManagerToolsC2ERKS0_@MIRAL_2.0 2.0
 _ZN5miral18WindowManagerToolsD1Ev@MIRAL_2.0 2.0
 _ZN5miral18WindowManagerToolsD2Ev@MIRAL_2.0 2.0
 _ZN5miral18WindowManagerToolsaSERKS0_@MIRAL_2.0 2.0
 _ZN5miral19WindowSpecification10height_incEv@MIRAL_2.0 2.0
 _ZN5miral19WindowSpecification10input_modeEv@MIRAL_2.0 2.0
 _ZN5miral19WindowSpecification10max_aspectEv@MIRAL_2.0 2.0
 _ZN5miral19WindowSpecification10max_heightEv@MIRAL_2.0 2.0
 _ZN5miral19WindowSpecification10min_aspectEv@MIRAL_2.0 2.0
 _ZN5miral19WindowSpecification10min_heightEv@MIRAL_2.0 2.0
 _ZN5miral19WindowSpecification11depth_layerEv@MIRAL_2.6 2.6
 _ZN5miral19WindowSpecification11input_shapeEv@MIRAL_2.0 2.0
 _ZN5miral19WindowSpecification12shell_chromeEv@MIRAL_2.0 2.0
 _ZN5miral19WindowSpecification14application_idB5cxx11Ev@MIRAL_2.8 2.8
 _ZN5miral19WindowSpecification14attached_edgesEv@MIRAL_2.7 2.7
 _ZN5miral19WindowSpecification14exclusive_rectEv@MIRAL_2.7 2.7
 _ZN5miral19WindowSpecification15confine_pointerEv@MIRAL_2.0 2.0
 _ZN5miral19WindowSpecification15placement_hintsEv@MIRAL_2.0 2.0
 _ZN5miral19WindowSpecification21preferred_orientationEv@MIRAL_2.0 2.0
 _ZN5miral19WindowSpecification24window_placement_gravityEv@MIRAL_2.0 2.0
 _ZN5miral19WindowSpecification25aux_rect_placement_offsetEv@MIRAL_2.0 2.0
 _ZN5miral19WindowSpecification26aux_rect_placement_gravityEv@MIRAL_2.0 2.0
 _ZN5miral19WindowSpecification4nameB5cxx11Ev@MIRAL_2.0 2.0
 _ZN5miral19WindowSpecification4sizeEv@MIRAL_2.0 2.0
 _ZN5miral19WindowSpecification4typeEv@MIRAL_2.0 2.0
 _ZN5miral19WindowSpecification5stateEv@MIRAL_2.0 2.0
 _ZN5miral19WindowSpecification6parentEv@MIRAL_2.0 2.0
 _ZN5miral19WindowSpecification8aux_rectEv@MIRAL_2.0 2.0
 _ZN5miral19WindowSpecification8top_leftEv@MIRAL_2.0 2.0
 _ZN5miral19WindowSpecification8userdataEv@MIRAL_2.0 2.0
 _ZN5miral19WindowSpecification9max_widthEv@MIRAL_2.0 2.0
 _ZN5miral19WindowSpecification9min_widthEv@MIRAL_2.0 2.0
 _ZN5miral19WindowSpecification9output_idEv@MIRAL_2.0 2.0
 _ZN5miral19WindowSpecification9width_incEv@MIRAL_2.0 2.0
 _ZN5miral19WindowSpecificationC1ERKN3mir5scene25SurfaceCreationParametersE@MIRAL_2.0 2.0
 _ZN5miral19WindowSpecificationC1ERKN3mir5shell20SurfaceSpecificationE@MIRAL_2.0 2.0
 _ZN5miral19WindowSpecificationC1ERKS0_@MIRAL_2.0 2.0
 _ZN5miral19WindowSpecificationC1Ev@MIRAL_2.0 2.0
 _ZN5miral19WindowSpecificationC2ERKN3mir5scene25SurfaceCreationParametersE@MIRAL_2.0 2.0
 _ZN5miral19WindowSpecificationC2ERKN3mir5shell20SurfaceSpecificationE@MIRAL_2.0 2.0
 _ZN5miral19WindowSpecificationC2ERKS0_@MIRAL_2.0 2.0
 _ZN5miral19WindowSpecificationC2Ev@MIRAL_2.0 2.0
 _ZN5miral19WindowSpecificationD1Ev@MIRAL_2.0 2.0
 _ZN5miral19WindowSpecificationD2Ev@MIRAL_2.0 2.0
 _ZN5miral19WindowSpecificationaSERKS0_@MIRAL_2.0 2.0
 _ZN5miral20DisplayConfiguration12list_layoutsB5cxx11Ev@MIRAL_2.4 2.4
 _ZN5miral20DisplayConfiguration13layout_optionEv@MIRAL_2.4 2.4
 _ZN5miral20DisplayConfiguration13select_layoutERKNSt7__cxx1112basic_stringIcSt11char_traitsIcESaIcEEE@MIRAL_2.4 2.4
 _ZN5miral20DisplayConfigurationC1ERKNS_9MirRunnerE@MIRAL_2.4 2.4
 _ZN5miral20DisplayConfigurationC1ERKS0_@MIRAL_2.4 2.4
 _ZN5miral20DisplayConfigurationC2ERKNS_9MirRunnerE@MIRAL_2.4 2.4
 _ZN5miral20DisplayConfigurationC2ERKS0_@MIRAL_2.4 2.4
 _ZN5miral20DisplayConfigurationD1Ev@MIRAL_2.4 2.4
 _ZN5miral20DisplayConfigurationD2Ev@MIRAL_2.4 2.4
 _ZN5miral20DisplayConfigurationaSERKS0_@MIRAL_2.4 2.4
 _ZN5miral20MinimalWindowManager16begin_touch_moveERKNS_10WindowInfoEPK13MirInputEvent@MIRAL_2.5 2.5
 _ZN5miral20MinimalWindowManager16place_new_windowERKNS_15ApplicationInfoERKNS_19WindowSpecificationE@MIRAL_2.5 2.5
 _ZN5miral20MinimalWindowManager18begin_pointer_moveERKNS_10WindowInfoEPK13MirInputEvent@MIRAL_2.5 2.5
 _ZN5miral20MinimalWindowManager18begin_touch_resizeERKNS_10WindowInfoEPK13MirInputEventRK13MirResizeEdge@MIRAL_2.5 2.5
 _ZN5miral20MinimalWindowManager18handle_touch_eventEPK13MirTouchEvent@MIRAL_2.5 2.5
 _ZN5miral20MinimalWindowManager19advise_focus_gainedERKNS_10WindowInfoE@MIRAL_2.5 2.5
 _ZN5miral20MinimalWindowManager19handle_raise_windowERNS_10WindowInfoE@MIRAL_2.5 2.5
 _ZN5miral20MinimalWindowManager19handle_request_moveERNS_10WindowInfoEPK13MirInputEvent@MIRAL_2.5 2.5
 _ZN5miral20MinimalWindowManager19handle_window_readyERNS_10WindowInfoE@MIRAL_2.5 2.5
 _ZN5miral20MinimalWindowManager20begin_pointer_resizeERKNS_10WindowInfoEPK13MirInputEventRK13MirResizeEdge@MIRAL_2.5 2.5
 _ZN5miral20MinimalWindowManager20handle_modify_windowERNS_10WindowInfoERKNS_19WindowSpecificationE@MIRAL_2.5 2.5
 _ZN5miral20MinimalWindowManager20handle_pointer_eventEPK15MirPointerEvent@MIRAL_2.5 2.5
 _ZN5miral20MinimalWindowManager21handle_keyboard_eventEPK16MirKeyboardEvent@MIRAL_2.5 2.5
 _ZN5miral20MinimalWindowManager21handle_request_resizeERNS_10WindowInfoEPK13MirInputEvent13MirResizeEdge@MIRAL_2.5 2.5
 _ZN5miral20MinimalWindowManager22confirm_inherited_moveERKNS_10WindowInfoEN3mir8geometry12DisplacementE@MIRAL_2.5 2.5
 _ZN5miral20MinimalWindowManager28confirm_placement_on_displayERKNS_10WindowInfoE14MirWindowStateRKN3mir8geometry9RectangleE@MIRAL_2.5 2.5
 _ZN5miral20MinimalWindowManager28handle_request_drag_and_dropERNS_10WindowInfoE@MIRAL_2.5 2.5
 _ZN5miral20MinimalWindowManagerC1ERKNS_18WindowManagerToolsE@MIRAL_2.5 2.5
 _ZN5miral20MinimalWindowManagerC2ERKNS_18WindowManagerToolsE@MIRAL_2.5 2.5
 _ZN5miral20MinimalWindowManagerD0Ev@MIRAL_2.5 2.5
 _ZN5miral20MinimalWindowManagerD1Ev@MIRAL_2.5 2.5
 _ZN5miral20MinimalWindowManagerD2Ev@MIRAL_2.5 2.5
 _ZN5miral21SetCommandLineHandlerC1ERKSt8functionIFviPKPKcEE@MIRAL_2.0 2.0
 _ZN5miral21SetCommandLineHandlerC2ERKSt8functionIFviPKPKcEE@MIRAL_2.0 2.0
 _ZN5miral21SetCommandLineHandlerD1Ev@MIRAL_2.0 2.0
 _ZN5miral21SetCommandLineHandlerD2Ev@MIRAL_2.0 2.0
 (optional=templinst)_ZN5miral21StartupInternalClientC1ENSt7__cxx1112basic_stringIcSt11char_traitsIcESaIcEEESt8functionIFvN3mir6client10ConnectionEEES7_IFvSt8weak_ptrINS8_5scene7SessionEEEE@MIRAL_2.0 2.0
 (optional=templinst)_ZN5miral21StartupInternalClientC1ESt8functionIFvP10wl_displayEES1_IFvSt8weak_ptrIN3mir5scene7SessionEEEE@MIRAL_2.3 2.3
 (optional=templinst)_ZN5miral21StartupInternalClientC2ENSt7__cxx1112basic_stringIcSt11char_traitsIcESaIcEEESt8functionIFvN3mir6client10ConnectionEEES7_IFvSt8weak_ptrINS8_5scene7SessionEEEE@MIRAL_2.0 2.0
 (optional=templinst)_ZN5miral21StartupInternalClientC2ESt8functionIFvP10wl_displayEES1_IFvSt8weak_ptrIN3mir5scene7SessionEEEE@MIRAL_2.3 2.3
 _ZN5miral21StartupInternalClientD1Ev@MIRAL_2.0 2.0
 _ZN5miral21StartupInternalClientD2Ev@MIRAL_2.0 2.0
 _ZN5miral21StartupInternalClientclERN3mir6ServerE@MIRAL_2.0 2.0
 _ZN5miral22ApplicationCredentialsC1ERKN3mir8frontend18SessionCredentialsE@MIRAL_2.0 2.0
 _ZN5miral22ApplicationCredentialsC2ERKN3mir8frontend18SessionCredentialsE@MIRAL_2.0 2.0
 _ZN5miral22ExternalClientLauncherC1Ev@MIRAL_2.2 2.2
 _ZN5miral22ExternalClientLauncherC2Ev@MIRAL_2.2 2.2
 _ZN5miral22ExternalClientLauncherD1Ev@MIRAL_2.2 2.2
 _ZN5miral22ExternalClientLauncherD2Ev@MIRAL_2.2 2.2
 _ZN5miral22ExternalClientLauncherclERN3mir6ServerE@MIRAL_2.2 2.2
 _ZN5miral22InternalClientLauncherC1Ev@MIRAL_2.0 2.0
 _ZN5miral22InternalClientLauncherC2Ev@MIRAL_2.0 2.0
 _ZN5miral22InternalClientLauncherD1Ev@MIRAL_2.0 2.0
 _ZN5miral22InternalClientLauncherD2Ev@MIRAL_2.0 2.0
 _ZN5miral22InternalClientLauncherclERN3mir6ServerE@MIRAL_2.0 2.0
 _ZN5miral22WindowManagementPolicy10advise_endEv@MIRAL_2.0 2.0
 _ZN5miral22WindowManagementPolicy12advise_beginEv@MIRAL_2.0 2.0
 _ZN5miral22WindowManagementPolicy12advise_raiseERKSt6vectorINS_6WindowESaIS2_EE@MIRAL_2.0 2.0
 _ZN5miral22WindowManagementPolicy13advise_resizeERKNS_10WindowInfoERKN3mir8geometry4SizeE@MIRAL_2.0 2.0
 _ZN5miral22WindowManagementPolicy14advise_move_toERKNS_10WindowInfoEN3mir8geometry5PointE@MIRAL_2.0 2.0
 _ZN5miral22WindowManagementPolicy14advise_new_appERNS_15ApplicationInfoE@MIRAL_2.0 2.0
 _ZN5miral22WindowManagementPolicy17advise_delete_appERKNS_15ApplicationInfoE@MIRAL_2.0 2.0
 _ZN5miral22WindowManagementPolicy17advise_focus_lostERKNS_10WindowInfoE@MIRAL_2.0 2.0
 _ZN5miral22WindowManagementPolicy17advise_new_windowERKNS_10WindowInfoE@MIRAL_2.0 2.0
 _ZN5miral22WindowManagementPolicy19advise_focus_gainedERKNS_10WindowInfoE@MIRAL_2.0 2.0
 _ZN5miral22WindowManagementPolicy19advise_state_changeERKNS_10WindowInfoE14MirWindowState@MIRAL_2.0 2.0
 _ZN5miral22WindowManagementPolicy20advise_delete_windowERKNS_10WindowInfoE@MIRAL_2.0 2.0
 _ZN5miral22WindowManagementPolicy20advise_output_createERKNS_6OutputE@MIRAL_2.0 2.0
 _ZN5miral22WindowManagementPolicy20advise_output_deleteERKNS_6OutputE@MIRAL_2.0 2.0
 _ZN5miral22WindowManagementPolicy20advise_output_updateERKNS_6OutputES3_@MIRAL_2.0 2.0
 _ZN5miral22WindowManagementPolicy23ApplicationZoneAddendum30advise_application_zone_createERKNS_4ZoneE@MIRAL_2.6 2.6
 _ZN5miral22WindowManagementPolicy23ApplicationZoneAddendum30advise_application_zone_deleteERKNS_4ZoneE@MIRAL_2.6 2.6
 _ZN5miral22WindowManagementPolicy23ApplicationZoneAddendum30advise_application_zone_updateERKNS_4ZoneES4_@MIRAL_2.6 2.6
 _ZN5miral22WindowManagementPolicy23ApplicationZoneAddendum4fromEPS0_@MIRAL_2.6 2.6
 (arch=mips64el ppc64 s390x)_ZN5miral22WindowManagementPolicy23ApplicationZoneAddendumD0Ev@MIRAL_2.6 2.6
 (arch=mips64el ppc64 s390x)_ZN5miral22WindowManagementPolicy23ApplicationZoneAddendumD1Ev@MIRAL_2.6 2.6
 (arch=mips64el ppc64 s390x)_ZN5miral22WindowManagementPolicy23ApplicationZoneAddendumD2Ev@MIRAL_2.6 2.6
 _ZN5miral22WindowManagementPolicy26advise_adding_to_workspaceERKSt10shared_ptrINS_9WorkspaceEERKSt6vectorINS_6WindowESaIS7_EE@MIRAL_2.0 2.0
 _ZN5miral22WindowManagementPolicy30advise_removing_from_workspaceERKSt10shared_ptrINS_9WorkspaceEERKSt6vectorINS_6WindowESaIS7_EE@MIRAL_2.0 2.0
 _ZN5miral23equivalent_display_areaERKNS_6OutputES2_@MIRAL_2.0 2.0
 _ZN5miral24apply_lifecycle_state_toERKSt10shared_ptrIN3mir5scene7SessionEE17MirLifecycleState@MIRAL_2.0 2.0
 (optional=templinst)_ZN5miral25SetWindowManagementPolicyC1ERKSt8functionIFSt10unique_ptrINS_22WindowManagementPolicyESt14default_deleteIS3_EERKNS_18WindowManagerToolsEEE@MIRAL_2.0 2.0
 (optional=templinst)_ZN5miral25SetWindowManagementPolicyC2ERKSt8functionIFSt10unique_ptrINS_22WindowManagementPolicyESt14default_deleteIS3_EERKNS_18WindowManagerToolsEEE@MIRAL_2.0 2.0
 _ZN5miral25SetWindowManagementPolicyD1Ev@MIRAL_2.0 2.0
 _ZN5miral25SetWindowManagementPolicyD2Ev@MIRAL_2.0 2.0
 _ZN5miral28CanonicalWindowManagerPolicy16place_new_windowERKNS_15ApplicationInfoERKNS_19WindowSpecificationE@MIRAL_2.0 2.0
 _ZN5miral28CanonicalWindowManagerPolicy19advise_focus_gainedERKNS_10WindowInfoE@MIRAL_2.0 2.0
 _ZN5miral28CanonicalWindowManagerPolicy19handle_raise_windowERNS_10WindowInfoE@MIRAL_2.0 2.0
 _ZN5miral28CanonicalWindowManagerPolicy19handle_window_readyERNS_10WindowInfoE@MIRAL_2.0 2.0
 _ZN5miral28CanonicalWindowManagerPolicy20handle_modify_windowERNS_10WindowInfoERKNS_19WindowSpecificationE@MIRAL_2.0 2.0
 _ZN5miral28CanonicalWindowManagerPolicy22confirm_inherited_moveERKNS_10WindowInfoEN3mir8geometry12DisplacementE@MIRAL_2.0 2.0
 _ZN5miral28CanonicalWindowManagerPolicy28confirm_placement_on_displayERKNS_10WindowInfoE14MirWindowStateRKN3mir8geometry9RectangleE@MIRAL_2.1 2.1
 _ZN5miral28CanonicalWindowManagerPolicy28handle_request_drag_and_dropERNS_10WindowInfoE@MIRAL_2.1 2.1
 _ZN5miral28CanonicalWindowManagerPolicyC1ERKNS_18WindowManagerToolsE@MIRAL_2.0 2.0
 _ZN5miral28CanonicalWindowManagerPolicyC2ERKNS_18WindowManagerToolsE@MIRAL_2.0 2.0
 (optional=templinst)_ZN5miral29BasicSetApplicationAuthorizerC1ERKSt8functionIFSt10shared_ptrINS_21ApplicationAuthorizerEEvEE@MIRAL_2.0 2.0
 (optional=templinst)_ZN5miral29BasicSetApplicationAuthorizerC2ERKSt8functionIFSt10shared_ptrINS_21ApplicationAuthorizerEEvEE@MIRAL_2.0 2.0
 _ZN5miral29BasicSetApplicationAuthorizerD1Ev@MIRAL_2.0 2.0
 _ZN5miral29BasicSetApplicationAuthorizerD2Ev@MIRAL_2.0 2.0
 _ZN5miral29BasicSetApplicationAuthorizerclERN3mir6ServerE@MIRAL_2.0 2.0
 _ZN5miral29display_configuration_optionsERN3mir6ServerE@MIRAL_2.0 2.0
 _ZN5miral4Zone7extentsERKN3mir8geometry9RectangleE@MIRAL_2.6 2.6
 _ZN5miral4ZoneC1ERKN3mir8geometry9RectangleE@MIRAL_2.6 2.6
 _ZN5miral4ZoneC1ERKS0_@MIRAL_2.6 2.6
 _ZN5miral4ZoneC2ERKN3mir8geometry9RectangleE@MIRAL_2.6 2.6
 _ZN5miral4ZoneC2ERKS0_@MIRAL_2.6 2.6
 _ZN5miral4ZoneD1Ev@MIRAL_2.6 2.6
 _ZN5miral4ZoneD2Ev@MIRAL_2.6 2.6
 _ZN5miral4ZoneaSERKS0_@MIRAL_2.6 2.6
 _ZN5miral4killERKSt10shared_ptrIN3mir5scene7SessionEEi@MIRAL_2.0 2.0
 _ZN5miral6Keymap10set_keymapERKNSt7__cxx1112basic_stringIcSt11char_traitsIcESaIcEEE@MIRAL_2.0 2.0
 _ZN5miral6KeymapC1ERKNSt7__cxx1112basic_stringIcSt11char_traitsIcESaIcEEE@MIRAL_2.0 2.0
 _ZN5miral6KeymapC1ERKS0_@MIRAL_2.0 2.0
 _ZN5miral6KeymapC1Ev@MIRAL_2.0 2.0
 _ZN5miral6KeymapC2ERKNSt7__cxx1112basic_stringIcSt11char_traitsIcESaIcEEE@MIRAL_2.0 2.0
 _ZN5miral6KeymapC2ERKS0_@MIRAL_2.0 2.0
 _ZN5miral6KeymapC2Ev@MIRAL_2.0 2.0
 _ZN5miral6KeymapD1Ev@MIRAL_2.0 2.0
 _ZN5miral6KeymapD2Ev@MIRAL_2.0 2.0
 _ZN5miral6KeymapaSERKS0_@MIRAL_2.0 2.0
 _ZN5miral6OutputC1ERKN3mir8graphics26DisplayConfigurationOutputE@MIRAL_2.0 2.0
 _ZN5miral6OutputC1ERKS0_@MIRAL_2.0 2.0
 _ZN5miral6OutputC2ERKN3mir8graphics26DisplayConfigurationOutputE@MIRAL_2.0 2.0
 _ZN5miral6OutputC2ERKS0_@MIRAL_2.0 2.0
 _ZN5miral6OutputD1Ev@MIRAL_2.0 2.0
 _ZN5miral6OutputD2Ev@MIRAL_2.0 2.0
 _ZN5miral6OutputaSERKS0_@MIRAL_2.0 2.0
 _ZN5miral6Window6resizeERKN3mir8geometry4SizeE@MIRAL_2.0 2.0
 _ZN5miral6Window7move_toEN3mir8geometry5PointE@MIRAL_2.0 2.0
 _ZN5miral6WindowC1ERKSt10shared_ptrIN3mir5scene7SessionEERKS1_INS3_7SurfaceEE@MIRAL_2.0 2.0
 _ZN5miral6WindowC1Ev@MIRAL_2.0 2.0
 _ZN5miral6WindowC2ERKSt10shared_ptrIN3mir5scene7SessionEERKS1_INS3_7SurfaceEE@MIRAL_2.0 2.0
 _ZN5miral6WindowC2Ev@MIRAL_2.0 2.0
 _ZN5miral6WindowD1Ev@MIRAL_2.0 2.0
 _ZN5miral6WindowD2Ev@MIRAL_2.0 2.0
 _ZN5miral6pid_ofERKSt10shared_ptrIN3mir5scene7SessionEE@MIRAL_2.0 2.0
 _ZN5miral7name_ofB5cxx11ERKSt10shared_ptrIN3mir5scene7SessionEE@MIRAL_2.0 2.0
 _ZN5miral8pre_initERKNS_17CommandLineOptionE@MIRAL_2.0 2.0
 _ZN5miral9MirRunner17add_stop_callbackERKSt8functionIFvvEE@MIRAL_2.0 2.0
 _ZN5miral9MirRunner18add_start_callbackERKSt8functionIFvvEE@MIRAL_2.0 2.0
 _ZN5miral9MirRunner21set_exception_handlerERKSt8functionIFvvEE@MIRAL_2.0 2.0
 _ZN5miral9MirRunner4stopEv@MIRAL_2.0 2.0
 _ZN5miral9MirRunner8run_withESt16initializer_listISt8functionIFvRN3mir6ServerEEEE@MIRAL_2.0 2.0
 _ZN5miral9MirRunnerC1EiPPKc@MIRAL_2.0 2.0
 _ZN5miral9MirRunnerC1EiPPKcS2_@MIRAL_2.0 2.0
 _ZN5miral9MirRunnerC2EiPPKc@MIRAL_2.0 2.0
 _ZN5miral9MirRunnerC2EiPPKcS2_@MIRAL_2.0 2.0
 _ZN5miral9MirRunnerD1Ev@MIRAL_2.0 2.0
 _ZN5miral9MirRunnerD2Ev@MIRAL_2.0 2.0
 _ZN5miraleqERKNS_6Output14PhysicalSizeMMES3_@MIRAL_2.0 2.0
 _ZN5miraleqERKNS_6WindowERKSt10shared_ptrIN3mir5scene7SurfaceEE@MIRAL_2.0 2.0
 _ZN5miraleqERKNS_6WindowES2_@MIRAL_2.0 2.0
 _ZN5miraleqERKSt10shared_ptrIN3mir5scene7SurfaceEERKNS_6WindowE@MIRAL_2.0 2.0
 _ZN5miralltERKNS_6WindowES2_@MIRAL_2.0 2.0
 _ZNK5miral10WindowInfo10height_incEv@MIRAL_2.0 2.0
 _ZNK5miral10WindowInfo10is_visibleEv@MIRAL_2.0 2.0
 _ZNK5miral10WindowInfo10max_aspectEv@MIRAL_2.0 2.0
 _ZNK5miral10WindowInfo10max_heightEv@MIRAL_2.0 2.0
 _ZNK5miral10WindowInfo10min_aspectEv@MIRAL_2.0 2.0
 _ZNK5miral10WindowInfo10min_heightEv@MIRAL_2.0 2.0
 _ZNK5miral10WindowInfo11depth_layerEv@MIRAL_2.6 2.6
 _ZNK5miral10WindowInfo12can_morph_toE13MirWindowType@MIRAL_2.0 2.0
 _ZNK5miral10WindowInfo12restore_rectEv@MIRAL_2.0 2.0
 _ZNK5miral10WindowInfo12shell_chromeEv@MIRAL_2.0 2.0
 _ZNK5miral10WindowInfo13can_be_activeEv@MIRAL_2.0 2.0
 _ZNK5miral10WindowInfo13has_output_idEv@MIRAL_2.0 2.0
 _ZNK5miral10WindowInfo14application_idB5cxx11Ev@MIRAL_2.8 2.8
 _ZNK5miral10WindowInfo14attached_edgesEv@MIRAL_2.7 2.7
 _ZNK5miral10WindowInfo14exclusive_rectEv@MIRAL_2.7 2.7
 _ZNK5miral10WindowInfo15confine_pointerEv@MIRAL_2.0 2.0
 _ZNK5miral10WindowInfo16constrain_resizeERN3mir8geometry5PointERNS2_4SizeE@MIRAL_2.0 2.0
 _ZNK5miral10WindowInfo16must_have_parentEv@MIRAL_2.0 2.0
 _ZNK5miral10WindowInfo20must_not_have_parentEv@MIRAL_2.0 2.0
 _ZNK5miral10WindowInfo21preferred_orientationEv@MIRAL_2.0 2.0
 _ZNK5miral10WindowInfo4nameB5cxx11Ev@MIRAL_2.0 2.0
 _ZNK5miral10WindowInfo4typeEv@MIRAL_2.0 2.0
 _ZNK5miral10WindowInfo5stateEv@MIRAL_2.0 2.0
 _ZNK5miral10WindowInfo6parentEv@MIRAL_2.0 2.0
 _ZNK5miral10WindowInfo6windowEv@MIRAL_2.0 2.0
 _ZNK5miral10WindowInfo8childrenEv@MIRAL_2.0 2.0
 _ZNK5miral10WindowInfo8userdataEv@MIRAL_2.0 2.0
 _ZNK5miral10WindowInfo9clip_areaEv@MIRAL_2.8 2.8
 _ZNK5miral10WindowInfo9max_widthEv@MIRAL_2.0 2.0
 _ZNK5miral10WindowInfo9min_widthEv@MIRAL_2.0 2.0
 _ZNK5miral10WindowInfo9output_idEv@MIRAL_2.0 2.0
 _ZNK5miral10WindowInfo9width_incEv@MIRAL_2.0 2.0
 _ZNK5miral10X11SupportclERN3mir6ServerE@MIRAL_2.4 2.4
 _ZNK5miral11CursorThemeclERN3mir6ServerE@MIRAL_2.0 2.0
 _ZNK5miral13SetTerminatorclERN3mir6ServerE@MIRAL_2.0 2.0
 _ZNK5miral14DebugExtensionclERN3mir6ServerE@MIRAL_2.0 2.0
 _ZNK5miral15AddInitCallbackclERN3mir6ServerE@MIRAL_2.0 2.0
 _ZNK5miral15ApplicationInfo11applicationEv@MIRAL_2.0 2.0
 _ZNK5miral15ApplicationInfo4nameB5cxx11Ev@MIRAL_2.0 2.0
 _ZNK5miral15ApplicationInfo7windowsEv@MIRAL_2.0 2.0
 _ZNK5miral15ApplicationInfo8userdataEv@MIRAL_2.0 2.0
 _ZNK5miral17CommandLineOptionclERN3mir6ServerE@MIRAL_2.0 2.0
 _ZNK5miral17WaylandExtensions20supported_extensionsB5cxx11Ev@MIRAL_2.4 2.4
 _ZNK5miral17WaylandExtensionsclERN3mir6ServerE@MIRAL_2.4 2.4
 _ZNK5miral18WindowManagerTools13active_windowEv@MIRAL_2.0 2.0
 _ZNK5miral18WindowManagerTools13id_for_windowB5cxx11ERKNS_6WindowE@MIRAL_2.0 2.0
 _ZNK5miral18WindowManagerTools18count_applicationsEv@MIRAL_2.0 2.0
 _ZNK5miral18WindowManagerTools18info_for_window_idERKNSt7__cxx1112basic_stringIcSt11char_traitsIcESaIcEEE@MIRAL_2.0 2.0
 _ZNK5miral18WindowManagerTools24place_and_size_for_stateERNS_19WindowSpecificationERKNS_10WindowInfoE@MIRAL_2.0 2.0
 _ZNK5miral18WindowManagerTools8info_forERKNS_6WindowE@MIRAL_2.0 2.0
 _ZNK5miral18WindowManagerTools8info_forERKSt8weak_ptrIN3mir5scene7SessionEE@MIRAL_2.0 2.0
 _ZNK5miral18WindowManagerTools8info_forERKSt8weak_ptrIN3mir5scene7SurfaceEE@MIRAL_2.0 2.0
 _ZNK5miral18WindowManagerTools9window_atEN3mir8geometry5PointE@MIRAL_2.0 2.0
 _ZNK5miral19WindowSpecification10height_incEv@MIRAL_2.0 2.0
 _ZNK5miral19WindowSpecification10input_modeEv@MIRAL_2.0 2.0
 _ZNK5miral19WindowSpecification10max_aspectEv@MIRAL_2.0 2.0
 _ZNK5miral19WindowSpecification10max_heightEv@MIRAL_2.0 2.0
 _ZNK5miral19WindowSpecification10min_aspectEv@MIRAL_2.0 2.0
 _ZNK5miral19WindowSpecification10min_heightEv@MIRAL_2.0 2.0
 _ZNK5miral19WindowSpecification11depth_layerEv@MIRAL_2.6 2.6
 _ZNK5miral19WindowSpecification11input_shapeEv@MIRAL_2.0 2.0
 _ZNK5miral19WindowSpecification12shell_chromeEv@MIRAL_2.0 2.0
 _ZNK5miral19WindowSpecification14application_idB5cxx11Ev@MIRAL_2.8 2.8
 _ZNK5miral19WindowSpecification14attached_edgesEv@MIRAL_2.7 2.7
 _ZNK5miral19WindowSpecification14exclusive_rectEv@MIRAL_2.7 2.7
 _ZNK5miral19WindowSpecification15confine_pointerEv@MIRAL_2.0 2.0
 _ZNK5miral19WindowSpecification15placement_hintsEv@MIRAL_2.0 2.0
 _ZNK5miral19WindowSpecification21preferred_orientationEv@MIRAL_2.0 2.0
 _ZNK5miral19WindowSpecification24window_placement_gravityEv@MIRAL_2.0 2.0
 _ZNK5miral19WindowSpecification25aux_rect_placement_offsetEv@MIRAL_2.0 2.0
 _ZNK5miral19WindowSpecification26aux_rect_placement_gravityEv@MIRAL_2.0 2.0
 _ZNK5miral19WindowSpecification4nameB5cxx11Ev@MIRAL_2.0 2.0
 _ZNK5miral19WindowSpecification4sizeEv@MIRAL_2.0 2.0
 _ZNK5miral19WindowSpecification4typeEv@MIRAL_2.0 2.0
 _ZNK5miral19WindowSpecification5stateEv@MIRAL_2.0 2.0
 _ZNK5miral19WindowSpecification6parentEv@MIRAL_2.0 2.0
 _ZNK5miral19WindowSpecification6updateERN3mir5scene25SurfaceCreationParametersE@MIRAL_2.0 2.0
 _ZNK5miral19WindowSpecification8aux_rectEv@MIRAL_2.0 2.0
 _ZNK5miral19WindowSpecification8top_leftEv@MIRAL_2.0 2.0
 _ZNK5miral19WindowSpecification8userdataEv@MIRAL_2.0 2.0
 _ZNK5miral19WindowSpecification9max_widthEv@MIRAL_2.0 2.0
 _ZNK5miral19WindowSpecification9min_widthEv@MIRAL_2.0 2.0
 _ZNK5miral19WindowSpecification9output_idEv@MIRAL_2.0 2.0
 _ZNK5miral19WindowSpecification9width_incEv@MIRAL_2.0 2.0
 _ZNK5miral20DisplayConfigurationclERN3mir6ServerE@MIRAL_2.4 2.4
 _ZNK5miral20WindowManagerOptionsclERN3mir6ServerE@MIRAL_2.0 2.0
 _ZNK5miral21SetCommandLineHandlerclERN3mir6ServerE@MIRAL_2.0 2.0
 _ZNK5miral22ApplicationCredentials3gidEv@MIRAL_2.0 2.0
 _ZNK5miral22ApplicationCredentials3pidEv@MIRAL_2.0 2.0
 _ZNK5miral22ApplicationCredentials3uidEv@MIRAL_2.0 2.0
 _ZNK5miral22ExternalClientLauncher16launch_using_x11ERKSt6vectorINSt7__cxx1112basic_stringIcSt11char_traitsIcESaIcEEESaIS7_EE@MIRAL_2.9 2.9
 _ZNK5miral22ExternalClientLauncher3pidEv@MIRAL_2.4 2.4
 _ZNK5miral22ExternalClientLauncher6launchERKSt6vectorINSt7__cxx1112basic_stringIcSt11char_traitsIcESaIcEEESaIS7_EE@MIRAL_2.2 2.2
 (optional=templinst)_ZNK5miral22InternalClientLauncher6launchERKNSt7__cxx1112basic_stringIcSt11char_traitsIcESaIcEEERKSt8functionIFvN3mir6client10ConnectionEEERKS9_IFvSt8weak_ptrINSA_5scene7SessionEEEE@MIRAL_2.0 2.0
 (optional=templinst)_ZNK5miral22InternalClientLauncher6launchERKSt8functionIFvP10wl_displayEERKS1_IFvSt8weak_ptrIN3mir5scene7SessionEEEE@MIRAL_2.3 2.3
 _ZNK5miral25SetWindowManagementPolicyclERN3mir6ServerE@MIRAL_2.0 2.0
 _ZNK5miral29BasicSetApplicationAuthorizer26the_application_authorizerEv@MIRAL_2.0 2.0
 _ZNK5miral4Zone12is_same_zoneERKS0_@MIRAL_2.6 2.6
 _ZNK5miral4Zone7extentsEv@MIRAL_2.6 2.6
 _ZNK5miral4ZoneeqERKS0_@MIRAL_2.6 2.6
 _ZNK5miral6KeymapclERN3mir6ServerE@MIRAL_2.0 2.0
 _ZNK5miral6Output10power_modeEv@MIRAL_2.0 2.0
 _ZNK5miral6Output11form_factorEv@MIRAL_2.0 2.0
 _ZNK5miral6Output11orientationEv@MIRAL_2.0 2.0
 _ZNK5miral6Output12pixel_formatEv@MIRAL_2.0 2.0
 _ZNK5miral6Output12refresh_rateEv@MIRAL_2.0 2.0
 _ZNK5miral6Output14is_same_outputERKS0_@MIRAL_2.0 2.0
 _ZNK5miral6Output16physical_size_mmEv@MIRAL_2.0 2.0
 _ZNK5miral6Output2idEv@MIRAL_2.7 2.7
 _ZNK5miral6Output4typeEv@MIRAL_2.0 2.0
 _ZNK5miral6Output4usedEv@MIRAL_2.0 2.0
 _ZNK5miral6Output5scaleEv@MIRAL_2.0 2.0
 _ZNK5miral6Output5validEv@MIRAL_2.0 2.0
 _ZNK5miral6Output7extentsEv@MIRAL_2.0 2.0
 _ZNK5miral6Output9connectedEv@MIRAL_2.0 2.0
 _ZNK5miral6Window11applicationEv@MIRAL_2.0 2.0
 _ZNK5miral6Window4sizeEv@MIRAL_2.0 2.0
 _ZNK5miral6Window8top_leftEv@MIRAL_2.0 2.0
 (optional=templinst)_ZNK5miral6WindowcvSt10shared_ptrIN3mir5scene7SurfaceEEEv@MIRAL_2.0 2.0
 (optional=templinst)_ZNK5miral6WindowcvSt8weak_ptrIN3mir5scene7SurfaceEEEv@MIRAL_2.0 2.0
 _ZNK5miral6WindowcvbEv@MIRAL_2.0 2.0
 _ZNK5miral9MirRunner11config_fileB5cxx11Ev@MIRAL_2.4 2.4
 _ZNK5miral9MirRunner11x11_displayB5cxx11Ev@MIRAL_2.8 2.8
 _ZNK5miral9MirRunner15wayland_displayB5cxx11Ev@MIRAL_2.8 2.8
 _ZNK5miral9MirRunner19display_config_fileB5cxx11Ev@MIRAL_2.4 2.4
 _ZTIN5miral17WaylandExtensions7ContextE@MIRAL_2.5 2.5
 _ZTIN5miral20MinimalWindowManagerE@MIRAL_2.5 2.5
 _ZTIN5miral22WindowManagementPolicy23ApplicationZoneAddendumE@MIRAL_2.6 2.6
 _ZTIN5miral22WindowManagementPolicyE@MIRAL_2.0 2.0
 _ZTIN5miral28CanonicalWindowManagerPolicyE@MIRAL_2.0 2.0
 _ZTVN5miral20MinimalWindowManagerE@MIRAL_2.5 2.5
 _ZTVN5miral22WindowManagementPolicy23ApplicationZoneAddendumE@MIRAL_2.6 2.6
 _ZTVN5miral22WindowManagementPolicyE@MIRAL_2.0 2.0
 _ZTVN5miral28CanonicalWindowManagerPolicyE@MIRAL_2.0 2.0
