# SymbolsHelper-Confirmed: 1.8.0+dfsg1 amd64 arm64 armel armhf hppa i386 m68k mips64el mipsel powerpc ppc64 ppc64el riscv64 s390x sh4 sparc64 x32
libmirplatform.so.18 libmirplatform18 #MINVER#
* Build-Depends-Package: libmirplatform-dev
 MIRPLATFORM_1.8@MIRPLATFORM_1.8 1.7
 _ZN3mir4udev10Enumerator12match_parentERKNS0_6DeviceE@MIRPLATFORM_1.8 1.7
 _ZN3mir4udev10Enumerator12scan_devicesEv@MIRPLATFORM_1.8 1.7
 _ZN3mir4udev10Enumerator13match_sysnameERKNSt7__cxx1112basic_stringIcSt11char_traitsIcESaIcEEE@MIRPLATFORM_1.8 1.7
 _ZN3mir4udev10Enumerator15match_subsystemERKNSt7__cxx1112basic_stringIcSt11char_traitsIcESaIcEEE@MIRPLATFORM_1.8 1.7
 _ZN3mir4udev10Enumerator3endEv@MIRPLATFORM_1.8 1.7
 _ZN3mir4udev10Enumerator5beginEv@MIRPLATFORM_1.8 1.7
 _ZN3mir4udev10Enumerator8iteratorppEi@MIRPLATFORM_1.8 1.7
 _ZN3mir4udev10Enumerator8iteratorppEv@MIRPLATFORM_1.8 1.7
 _ZN3mir4udev10EnumeratorC1ERKSt10shared_ptrINS0_7ContextEE@MIRPLATFORM_1.8 1.7
 _ZN3mir4udev10EnumeratorC2ERKSt10shared_ptrINS0_7ContextEE@MIRPLATFORM_1.8 1.7
 _ZN3mir4udev10EnumeratorD1Ev@MIRPLATFORM_1.8 1.7
 _ZN3mir4udev10EnumeratorD2Ev@MIRPLATFORM_1.8 1.7
 _ZN3mir4udev7Context19device_from_syspathERKNSt7__cxx1112basic_stringIcSt11char_traitsIcESaIcEEE@MIRPLATFORM_1.8 1.7
 _ZN3mir4udev7ContextC1Ev@MIRPLATFORM_1.8 1.7
 _ZN3mir4udev7ContextC2Ev@MIRPLATFORM_1.8 1.7
 _ZN3mir4udev7ContextD1Ev@MIRPLATFORM_1.8 1.7
 _ZN3mir4udev7ContextD2Ev@MIRPLATFORM_1.8 1.7
 _ZN3mir4udev7Monitor19filter_by_subsystemERKNSt7__cxx1112basic_stringIcSt11char_traitsIcESaIcEEE@MIRPLATFORM_1.8 1.7
 _ZN3mir4udev7Monitor28filter_by_subsystem_and_typeERKNSt7__cxx1112basic_stringIcSt11char_traitsIcESaIcEEES9_@MIRPLATFORM_1.8 1.7
 _ZN3mir4udev7Monitor6enableEv@MIRPLATFORM_1.8 1.7
 _ZN3mir4udev7MonitorC1ERKNS0_7ContextE@MIRPLATFORM_1.8 1.7
 _ZN3mir4udev7MonitorC2ERKNS0_7ContextE@MIRPLATFORM_1.8 1.7
 _ZN3mir4udev7MonitorD1Ev@MIRPLATFORM_1.8 1.7
 _ZN3mir4udev7MonitorD2Ev@MIRPLATFORM_1.8 1.7
 _ZN3mir4udeveqERKNS0_6DeviceES3_@MIRPLATFORM_1.8 1.7
 _ZN3mir4udevneERKNS0_6DeviceES3_@MIRPLATFORM_1.8 1.7
 _ZN3mir7options10cursor_optE@MIRPLATFORM_1.8 1.7
 _ZN3mir7options10vt_consoleE@MIRPLATFORM_1.8 1.7
 _ZN3mir7options12auto_consoleE@MIRPLATFORM_1.8 1.7
 _ZN3mir7options12null_consoleE@MIRPLATFORM_1.8 1.7
 _ZN3mir7options13ProgramOption10parse_fileERKN5boost15program_options19options_descriptionERKNSt7__cxx1112basic_stringIcSt11char_traitsIcESaIcEEE@MIRPLATFORM_1.8 1.7
 _ZN3mir7options13ProgramOption15parse_argumentsERKN5boost15program_options19options_descriptionEiPPKc@MIRPLATFORM_1.8 1.7
 _ZN3mir7options13ProgramOption17parse_environmentERKN5boost15program_options19options_descriptionEPKc@MIRPLATFORM_1.8 1.7
 _ZN3mir7options13ProgramOptionC1Ev@MIRPLATFORM_1.8 1.7
 _ZN3mir7options13ProgramOptionC2Ev@MIRPLATFORM_1.8 1.7
 _ZN3mir7options13log_opt_valueE@MIRPLATFORM_1.8 1.7
 _ZN3mir7options13off_opt_valueE@MIRPLATFORM_1.8 1.7
 _ZN3mir7options13offscreen_optE@MIRPLATFORM_1.8 1.7
 _ZN3mir7options13platform_pathE@MIRPLATFORM_1.8 1.7
 _ZN3mir7options14logind_consoleE@MIRPLATFORM_1.8 1.7
 _ZN3mir7options14touchspots_optE@MIRPLATFORM_1.8 1.7
 _ZN3mir7options14vt_option_nameE@MIRPLATFORM_1.8 1.7
 _ZN3mir7options15host_socket_optE@MIRPLATFORM_1.8 1.7
 _ZN3mir7options15lttng_opt_valueE@MIRPLATFORM_1.8 1.7
 _ZN3mir7options15seat_report_optE@MIRPLATFORM_1.8 1.7
 _ZN3mir7options15x11_display_optE@MIRPLATFORM_1.8 1.7
 _ZN3mir7options16console_providerE@MIRPLATFORM_1.8 1.7
 _ZN3mir7options16enable_input_optE@MIRPLATFORM_1.8 1.7
 _ZN3mir7options16fatal_except_optE@MIRPLATFORM_1.8 1.7
 _ZN3mir7options16input_report_optE@MIRPLATFORM_1.8 1.7
 _ZN3mir7options16scene_report_optE@MIRPLATFORM_1.8 1.7
 _ZN3mir7options16shell_report_optE@MIRPLATFORM_1.8 1.7
 _ZN3mir7options17prompt_socket_optE@MIRPLATFORM_1.8 1.7
 _ZN3mir7options17server_socket_optE@MIRPLATFORM_1.8 1.7
 _ZN3mir7options18display_report_optE@MIRPLATFORM_1.8 1.7
 _ZN3mir7options18platform_input_libE@MIRPLATFORM_1.8 1.7
 _ZN3mir7options19composite_delay_optE@MIRPLATFORM_1.8 1.7
 _ZN3mir7options20DefaultConfiguration11add_optionsEv@MIRPLATFORM_1.8 1.7
 _ZN3mir7options20DefaultConfigurationC1EiPPKc@MIRPLATFORM_1.8 1.7
 _ZN3mir7options20DefaultConfigurationC1EiPPKcRKNSt7__cxx1112basic_stringIcSt11char_traitsIcESaIcEEE@MIRPLATFORM_1.8 1.7
 _ZN3mir7options20DefaultConfigurationC1EiPPKcRKSt8functionIFviPKS3_EE@MIRPLATFORM_1.8 1.7
 _ZN3mir7options20DefaultConfigurationC1EiPPKcRKSt8functionIFviPKS3_EERKNSt7__cxx1112basic_stringIcSt11char_traitsIcESaIcEEE@MIRPLATFORM_1.8 1.7
 _ZN3mir7options20DefaultConfigurationC2EiPPKc@MIRPLATFORM_1.8 1.7
 _ZN3mir7options20DefaultConfigurationC2EiPPKcRKNSt7__cxx1112basic_stringIcSt11char_traitsIcESaIcEEE@MIRPLATFORM_1.8 1.7
 _ZN3mir7options20DefaultConfigurationC2EiPPKcRKSt8functionIFviPKS3_EE@MIRPLATFORM_1.8 1.7
 _ZN3mir7options20DefaultConfigurationC2EiPPKcRKSt8functionIFviPKS3_EERKNSt7__cxx1112basic_stringIcSt11char_traitsIcESaIcEEE@MIRPLATFORM_1.8 1.7
 (arch=mips64el ppc64 s390x)_ZN3mir7options20DefaultConfigurationD0Ev@MIRPLATFORM_1.8 1.8.0+dfsg1
 (arch=mips64el ppc64 s390x)_ZN3mir7options20DefaultConfigurationD1Ev@MIRPLATFORM_1.8 1.8.0+dfsg1
 (arch=mips64el ppc64 s390x)_ZN3mir7options20DefaultConfigurationD2Ev@MIRPLATFORM_1.8 1.8.0+dfsg1
 _ZN3mir7options20connector_report_optE@MIRPLATFORM_1.8 1.7
 _ZN3mir7options20enable_mirclient_optE@MIRPLATFORM_1.8 1.7
 _ZN3mir7options20no_server_socket_optE@MIRPLATFORM_1.8 1.7
 _ZN3mir7options21arw_server_socket_optE@MIRPLATFORM_1.8 1.7
 _ZN3mir7options21compositor_report_optE@MIRPLATFORM_1.8 1.7
 _ZN3mir7options21enable_key_repeat_optE@MIRPLATFORM_1.8 1.7
 _ZN3mir7options21platform_graphics_libE@MIRPLATFORM_1.8 1.7
 _ZN3mir7options22nested_passthrough_optE@MIRPLATFORM_1.8 1.7
 _ZN3mir7options22wayland_extensions_optE@MIRPLATFORM_1.8 1.7
 _ZN3mir7options23legacy_input_report_optE@MIRPLATFORM_1.8 1.7
 _ZN3mir7options24msg_processor_report_optE@MIRPLATFORM_1.8 1.7
 _ZN3mir7options27session_mediator_report_optE@MIRPLATFORM_1.8 1.7
 _ZN3mir7options32shared_library_prober_report_optE@MIRPLATFORM_1.8 1.7
 _ZN3mir7options8name_optE@MIRPLATFORM_1.8 1.7
 _ZN3mir7options9debug_optE@MIRPLATFORM_1.8 1.7
 _ZN3mir8graphics11AtomicFrame13increment_nowEv@MIRPLATFORM_1.8 1.7
 _ZN3mir8graphics11AtomicFrame24increment_with_timestampENS_4time14PosixTimestampE@MIRPLATFORM_1.8 1.7
 _ZN3mir8graphics11AtomicFrame5storeERKNS0_5FrameE@MIRPLATFORM_1.8 1.7
 _ZN3mir8graphics11BufferBasicC1Ev@MIRPLATFORM_1.8 1.7
 _ZN3mir8graphics11BufferBasicC2Ev@MIRPLATFORM_1.8 1.7
 _ZN3mir8graphics11GammaCurvesC1ERKSt6vectorItSaItEES6_S6_@MIRPLATFORM_1.8 1.7
 _ZN3mir8graphics11GammaCurvesC2ERKSt6vectorItSaItEES6_S6_@MIRPLATFORM_1.8 1.7
 _ZN3mir8graphics11gl_categoryEv@MIRPLATFORM_1.8 1.7
 _ZN3mir8graphics12egl_categoryEv@MIRPLATFORM_1.8 1.7
 _ZN3mir8graphics13EGLExtensions15PlatformBaseEXTC1Ev@MIRPLATFORM_1.8 1.7
 _ZN3mir8graphics13EGLExtensions15PlatformBaseEXTC2Ev@MIRPLATFORM_1.8 1.7
 _ZN3mir8graphics13EGLExtensions17WaylandExtensionsC1Ev@MIRPLATFORM_1.8 1.7
 _ZN3mir8graphics13EGLExtensions17WaylandExtensionsC2Ev@MIRPLATFORM_1.8 1.7
 _ZN3mir8graphics13EGLExtensions24NVStreamAttribExtensionsC1Ev@MIRPLATFORM_1.8 1.7
 _ZN3mir8graphics13EGLExtensions24NVStreamAttribExtensionsC2Ev@MIRPLATFORM_1.8 1.7
 _ZN3mir8graphics13EGLExtensionsC1Ev@MIRPLATFORM_1.8 1.7
 _ZN3mir8graphics13EGLExtensionsC2Ev@MIRPLATFORM_1.8 1.7
 _ZN3mir8graphics14contains_alphaE14MirPixelFormat@MIRPLATFORM_1.8 1.7
 _ZN3mir8graphics15EGLContextStoreC1EOS1_@MIRPLATFORM_1.8 1.7
 _ZN3mir8graphics15EGLContextStoreC1EPvS2_@MIRPLATFORM_1.8 1.7
 _ZN3mir8graphics15EGLContextStoreC2EOS1_@MIRPLATFORM_1.8 1.7
 _ZN3mir8graphics15EGLContextStoreC2EPvS2_@MIRPLATFORM_1.8 1.7
 _ZN3mir8graphics15EGLContextStoreD1Ev@MIRPLATFORM_1.8 1.7
 _ZN3mir8graphics15EGLContextStoreD2Ev@MIRPLATFORM_1.8 1.7
 _ZN3mir8graphics15EGLSurfaceStoreC1EOS1_@MIRPLATFORM_1.8 1.7
 _ZN3mir8graphics15EGLSurfaceStoreC1EPvS2_@MIRPLATFORM_1.8 1.7
 _ZN3mir8graphics15EGLSurfaceStoreC1EPvS2_NS1_14AllowNoSurfaceE@MIRPLATFORM_1.8 1.7
 _ZN3mir8graphics15EGLSurfaceStoreC2EOS1_@MIRPLATFORM_1.8 1.7
 _ZN3mir8graphics15EGLSurfaceStoreC2EPvS2_@MIRPLATFORM_1.8 1.7
 _ZN3mir8graphics15EGLSurfaceStoreC2EPvS2_NS1_14AllowNoSurfaceE@MIRPLATFORM_1.8 1.7
 _ZN3mir8graphics15EGLSurfaceStoreD1Ev@MIRPLATFORM_1.8 1.7
 _ZN3mir8graphics15EGLSurfaceStoreD2Ev@MIRPLATFORM_1.8 1.7
 _ZN3mir8graphics15LinearGammaLUTsC1Ei@MIRPLATFORM_1.8 1.7
 _ZN3mir8graphics15LinearGammaLUTsC2Ei@MIRPLATFORM_1.8 1.7
 _ZN3mir8graphics16WaylandAllocatorC1Ev@MIRPLATFORM_1.8 1.7
 _ZN3mir8graphics16WaylandAllocatorC2Ev@MIRPLATFORM_1.8 1.7
 _ZN3mir8graphics16WaylandAllocatorD0Ev@MIRPLATFORM_1.8 1.7
 _ZN3mir8graphics16WaylandAllocatorD1Ev@MIRPLATFORM_1.8 1.7
 _ZN3mir8graphics16WaylandAllocatorD2Ev@MIRPLATFORM_1.8 1.7
 _ZN3mir8graphics17red_channel_depthE14MirPixelFormat@MIRPLATFORM_1.8 1.7
 _ZN3mir8graphics18blue_channel_depthE14MirPixelFormat@MIRPLATFORM_1.8 1.7
 _ZN3mir8graphics19alpha_channel_depthE14MirPixelFormat@MIRPLATFORM_1.8 1.7
 _ZN3mir8graphics19green_channel_depthE14MirPixelFormat@MIRPLATFORM_1.8 1.7
 _ZN3mir8graphics25OverlappingOutputGrouping14for_each_groupERKSt8functionIFvRKNS0_22OverlappingOutputGroupEEE@MIRPLATFORM_1.8 1.7
 _ZN3mir8graphics25OverlappingOutputGroupingC1ERKNS0_20DisplayConfigurationE@MIRPLATFORM_1.8 1.7
 _ZN3mir8graphics25OverlappingOutputGroupingC2ERKNS0_20DisplayConfigurationE@MIRPLATFORM_1.8 1.7
 _ZN3mir8graphics2gl14ProgramFactoryD0Ev@MIRPLATFORM_1.8 1.7
 _ZN3mir8graphics2gl14ProgramFactoryD1Ev@MIRPLATFORM_1.8 1.7
 _ZN3mir8graphics2gl14ProgramFactoryD2Ev@MIRPLATFORM_1.8 1.7
 _ZN3mir8graphics2gl7ProgramD0Ev@MIRPLATFORM_1.8 1.7
 _ZN3mir8graphics2gl7ProgramD1Ev@MIRPLATFORM_1.8 1.7
 _ZN3mir8graphics2gl7ProgramD2Ev@MIRPLATFORM_1.8 1.7
 _ZN3mir8graphics2gl7TextureC1Ev@MIRPLATFORM_1.8 1.7
 _ZN3mir8graphics2gl7TextureC2Ev@MIRPLATFORM_1.8 1.7
 _ZN3mir8graphics2gl7TextureD0Ev@MIRPLATFORM_1.8 1.7
 _ZN3mir8graphics2gl7TextureD1Ev@MIRPLATFORM_1.8 1.7
 _ZN3mir8graphics2gl7TextureD2Ev@MIRPLATFORM_1.8 1.7
 _ZN3mir8graphics30UserDisplayConfigurationOutputC1ERNS0_26DisplayConfigurationOutputE@MIRPLATFORM_1.8 1.7
 _ZN3mir8graphics30UserDisplayConfigurationOutputC2ERNS0_26DisplayConfigurationOutputE@MIRPLATFORM_1.8 1.7
 _ZN3mir8graphics7wayland12bind_displayEPvP10wl_displayRKNS0_13EGLExtensionsE@MIRPLATFORM_1.8 1.7
 (optional=templinst)_ZN3mir8graphics7wayland20buffer_from_resourceEP11wl_resourceOSt8functionIFvvEES7_St10shared_ptrINS_8renderer2gl7ContextEERKNS0_13EGLExtensionsES8_INS_8ExecutorEE@MIRPLATFORM_1.8 1.7
 _ZN3mir8graphicseqERKNS0_20DisplayConfigurationES3_@MIRPLATFORM_1.8 1.7
 _ZN3mir8graphicseqERKNS0_24DisplayConfigurationCardES3_@MIRPLATFORM_1.8 1.7
 _ZN3mir8graphicseqERKNS0_24DisplayConfigurationModeES3_@MIRPLATFORM_1.8 1.7
 _ZN3mir8graphicseqERKNS0_26DisplayConfigurationOutputES3_@MIRPLATFORM_1.8 1.7
 _ZN3mir8graphicslsERSoRKNS0_20DisplayConfigurationE@MIRPLATFORM_1.8 1.7
 _ZN3mir8graphicslsERSoRKNS0_24DisplayConfigurationCardE@MIRPLATFORM_1.8 1.7
 _ZN3mir8graphicslsERSoRKNS0_24DisplayConfigurationModeE@MIRPLATFORM_1.8 1.7
 _ZN3mir8graphicslsERSoRKNS0_26DisplayConfigurationOutputE@MIRPLATFORM_1.8 1.7
 _ZN3mir8graphicsneERKNS0_20DisplayConfigurationES3_@MIRPLATFORM_1.8 1.7
 _ZN3mir8graphicsneERKNS0_24DisplayConfigurationCardES3_@MIRPLATFORM_1.8 1.7
 _ZN3mir8graphicsneERKNS0_24DisplayConfigurationModeES3_@MIRPLATFORM_1.8 1.7
 _ZN3mir8graphicsneERKNS0_26DisplayConfigurationOutputES3_@MIRPLATFORM_1.8 1.7
 _ZNK3mir4udev10Enumerator8iteratordeEv@MIRPLATFORM_1.8 1.7
 _ZNK3mir4udev10Enumerator8iteratoreqERKS2_@MIRPLATFORM_1.8 1.7
 _ZNK3mir4udev10Enumerator8iteratorneERKS2_@MIRPLATFORM_1.8 1.7
 _ZNK3mir4udev10Enumerator8iteratorptEv@MIRPLATFORM_1.8 1.7
 _ZNK3mir4udev7Context3ctxEv@MIRPLATFORM_1.8 1.7
 _ZNK3mir4udev7Monitor14process_eventsERKSt8functionIFvNS1_9EventTypeERKNS0_6DeviceEEE@MIRPLATFORM_1.8 1.7
 _ZNK3mir4udev7Monitor2fdEv@MIRPLATFORM_1.8 1.7
 _ZNK3mir7options13ProgramOption21unparsed_command_lineB5cxx11Ev@MIRPLATFORM_1.8 1.7
 _ZNK3mir7options13ProgramOption3getB5cxx11EPKcS3_@MIRPLATFORM_1.8 1.7
 _ZNK3mir7options13ProgramOption3getEPKc@MIRPLATFORM_1.8 1.7
 _ZNK3mir7options13ProgramOption3getEPKcb@MIRPLATFORM_1.8 1.7
 _ZNK3mir7options13ProgramOption3getEPKci@MIRPLATFORM_1.8 1.7
 _ZNK3mir7options13ProgramOption6is_setEPKc@MIRPLATFORM_1.8 1.7
 _ZNK3mir7options20DefaultConfiguration11the_optionsEv@MIRPLATFORM_1.8 1.7
 _ZNK3mir7options20DefaultConfiguration15parse_argumentsEN5boost15program_options19options_descriptionERNS0_13ProgramOptionEiPPKc@MIRPLATFORM_1.8 1.7
 _ZNK3mir7options20DefaultConfiguration17parse_config_fileERN5boost15program_options19options_descriptionERNS0_13ProgramOptionE@MIRPLATFORM_1.8 1.7
 _ZNK3mir7options20DefaultConfiguration17parse_environmentERN5boost15program_options19options_descriptionERNS0_13ProgramOptionE@MIRPLATFORM_1.8 1.7
 _ZNK3mir8graphics11AtomicFrame4loadEv@MIRPLATFORM_1.8 1.7
 _ZNK3mir8graphics15EGLContextStorecvPvEv@MIRPLATFORM_1.8 1.7
 _ZNK3mir8graphics15EGLSurfaceStorecvPvEv@MIRPLATFORM_1.8 1.7
 _ZNK3mir8graphics20DisplayConfiguration5validEv@MIRPLATFORM_1.8 1.7
 _ZNK3mir8graphics22OverlappingOutputGroup15for_each_outputERKSt8functionIFvRKNS0_26DisplayConfigurationOutputEEE@MIRPLATFORM_1.8 1.7
 _ZNK3mir8graphics22OverlappingOutputGroup18bounding_rectangleEv@MIRPLATFORM_1.8 1.7
 _ZNK3mir8graphics26DisplayConfigurationOutput14transformationEv@MIRPLATFORM_1.8 1.7
 _ZNK3mir8graphics26DisplayConfigurationOutput5validEv@MIRPLATFORM_1.8 1.7
 _ZNK3mir8graphics26DisplayConfigurationOutput7extentsEv@MIRPLATFORM_1.8 1.7
 _ZNK3mir8graphics30UserDisplayConfigurationOutput7extentsEv@MIRPLATFORM_1.8 1.7
 _ZTIN3mir12AbnormalExitE@MIRPLATFORM_1.8 1.7
 _ZTIN3mir7options13ConfigurationE@MIRPLATFORM_1.8 1.7
 _ZTIN3mir7options13ProgramOptionE@MIRPLATFORM_1.8 1.7
 _ZTIN3mir7options20DefaultConfigurationE@MIRPLATFORM_1.8 1.7
 _ZTIN3mir7options6OptionE@MIRPLATFORM_1.8 1.7
 _ZTIN3mir8graphics11BufferBasicE@MIRPLATFORM_1.8 1.7
 _ZTIN3mir8graphics16WaylandAllocatorE@MIRPLATFORM_1.8 1.7
 _ZTIN3mir8graphics20DisplayConfigurationE@MIRPLATFORM_1.8 1.7
 _ZTIN3mir8graphics2gl14ProgramFactoryE@MIRPLATFORM_1.8 1.7
 _ZTIN3mir8graphics2gl7ProgramE@MIRPLATFORM_1.8 1.7
 _ZTIN3mir8graphics2gl7TextureE@MIRPLATFORM_1.8 1.7
 _ZTIN3mir8graphics6BufferE@MIRPLATFORM_1.8 1.7
 (arch=mips64el ppc64 s390x)_ZTVN3mir12AbnormalExitE@MIRPLATFORM_1.8 1.8.0+dfsg1
 _ZTVN3mir7options13ProgramOptionE@MIRPLATFORM_1.8 1.7
 _ZTVN3mir7options20DefaultConfigurationE@MIRPLATFORM_1.8 1.7
 (arch=mips64el ppc64 s390x)_ZTVN3mir8graphics11BufferBasicE@MIRPLATFORM_1.8 1.8.0+dfsg1
 _ZTVN3mir8graphics16WaylandAllocatorE@MIRPLATFORM_1.8 1.7
 _ZTVN3mir8graphics20DisplayConfigurationE@MIRPLATFORM_1.8 1.7
 _ZTVN3mir8graphics2gl14ProgramFactoryE@MIRPLATFORM_1.8 1.7
 _ZTVN3mir8graphics2gl7ProgramE@MIRPLATFORM_1.8 1.7
 _ZTVN3mir8graphics2gl7TextureE@MIRPLATFORM_1.8 1.7
