# SymbolsHelper-Confirmed: 1.8.0+dfsg1 alpha amd64 arm64 armel armhf hppa i386 m68k mips64el mipsel powerpc ppc64 ppc64el riscv64 s390x sh4 sparc64 x32
libmircommon.so.7 libmircommon7 #MINVER#
* Build-Depends-Package: libmircommon-dev
 MIR_COMMON_0.25@MIR_COMMON_0.25 1.7
 MIR_COMMON_0.26@MIR_COMMON_0.26 1.7
 MIR_COMMON_0.27@MIR_COMMON_0.27 1.7
 MIR_COMMON_0.27_PRIVATE@MIR_COMMON_0.27_PRIVATE 1.7
 MIR_COMMON_UBSAN@MIR_COMMON_UBSAN 1.7
 _ZN13MirInputEvent10set_cookieERKSt6vectorIhSaIhEE@MIR_COMMON_0.27_PRIVATE 1.7
 _ZN13MirInputEvent10to_pointerEv@MIR_COMMON_0.27_PRIVATE 1.7
 _ZN13MirInputEvent11to_keyboardEv@MIR_COMMON_0.27_PRIVATE 1.7
 (subst)_ZN13MirInputEvent13set_device_idE{int64_t}@MIR_COMMON_0.27_PRIVATE 1.7
 _ZN13MirInputEvent13set_modifiersEj@MIR_COMMON_0.27_PRIVATE 1.7
 _ZN13MirInputEvent13set_window_idEi@MIR_COMMON_0.27 1.7
 (subst)_ZN13MirInputEvent14set_event_timeERKNSt6chrono8durationI{int64_t}St5ratioIL{int64_t}1EL{int64_t}1000000000EEEE@MIR_COMMON_0.27_PRIVATE 1.7
 _ZN13MirInputEvent8to_touchEv@MIR_COMMON_0.27_PRIVATE 1.7
 (subst)_ZN13MirTouchEvent10set_actionE{size_t}14MirTouchAction@MIR_COMMON_0.27_PRIVATE 1.7
 (subst)_ZN13MirTouchEvent12set_pressureE{size_t}f@MIR_COMMON_0.27_PRIVATE 1.7
 (subst)_ZN13MirTouchEvent13set_tool_typeE{size_t}16MirTouchTooltype@MIR_COMMON_0.27_PRIVATE 1.7
 (subst)_ZN13MirTouchEvent15set_orientationE{size_t}f@MIR_COMMON_0.27_PRIVATE 1.7
 (subst)_ZN13MirTouchEvent15set_touch_majorE{size_t}f@MIR_COMMON_0.27_PRIVATE 1.7
 (subst)_ZN13MirTouchEvent15set_touch_minorE{size_t}f@MIR_COMMON_0.27_PRIVATE 1.7
 (subst)_ZN13MirTouchEvent17set_pointer_countE{size_t}@MIR_COMMON_0.27_PRIVATE 1.7
 (subst)_ZN13MirTouchEvent5set_xE{size_t}f@MIR_COMMON_0.27_PRIVATE 1.7
 (subst)_ZN13MirTouchEvent5set_yE{size_t}f@MIR_COMMON_0.27_PRIVATE 1.7
 (subst)_ZN13MirTouchEvent6set_idE{size_t}i@MIR_COMMON_0.27_PRIVATE 1.7
 _ZN13MirTouchEventC1Ev@MIR_COMMON_0.27_PRIVATE 1.7
 (subst)_ZN13MirTouchEventC1E{int64_t}NSt6chrono8durationI{int64_t}St5ratioIL{int64_t}1EL{int64_t}1000000000EEEERKSt6vectorIhSaIhEEjRKS5_IN3mir6events12ContactStateESaISC_EE@MIR_COMMON_0.27_PRIVATE 1.7
 _ZN13MirTouchEventC2Ev@MIR_COMMON_0.27_PRIVATE 1.7
 (subst)_ZN13MirTouchEventC2E{int64_t}NSt6chrono8durationI{int64_t}St5ratioIL{int64_t}1EL{int64_t}1000000000EEEERKSt6vectorIhSaIhEEjRKS5_IN3mir6events12ContactStateESaISC_EE@MIR_COMMON_0.27_PRIVATE 1.7
 _ZN14MirInputConfig17add_device_configERK14MirInputDevice@MIR_COMMON_0.26 1.7
 (subst)_ZN14MirInputConfig19remove_device_by_idE{int64_t}@MIR_COMMON_0.26 1.7
 (subst)_ZN14MirInputConfig23get_device_config_by_idE{int64_t}@MIR_COMMON_0.26 1.7
 (subst)_ZN14MirInputConfig26get_device_config_by_indexE{size_t}@MIR_COMMON_0.26 1.7
 _ZN14MirInputConfig8for_eachERKSt8functionIFvR14MirInputDeviceEE@MIR_COMMON_0.26 1.7
 _ZN14MirInputConfigC1EOS_@MIR_COMMON_0.26 1.7
 _ZN14MirInputConfigC1ERKS_@MIR_COMMON_0.26 1.7
 _ZN14MirInputConfigC1Ev@MIR_COMMON_0.26 1.7
 _ZN14MirInputConfigC2EOS_@MIR_COMMON_0.26 1.7
 _ZN14MirInputConfigC2ERKS_@MIR_COMMON_0.26 1.7
 _ZN14MirInputConfigC2Ev@MIR_COMMON_0.26 1.7
 _ZN14MirInputConfigD1Ev@MIR_COMMON_0.26 1.7
 _ZN14MirInputConfigD2Ev@MIR_COMMON_0.26 1.7
 _ZN14MirInputConfigaSERKS_@MIR_COMMON_0.26 1.7
 _ZN14MirInputDevice14pointer_configEv@MIR_COMMON_0.26 1.7
 _ZN14MirInputDevice15keyboard_configEv@MIR_COMMON_0.26 1.7
 _ZN14MirInputDevice15touchpad_configEv@MIR_COMMON_0.26 1.7
 _ZN14MirInputDevice18set_pointer_configERK16MirPointerConfig@MIR_COMMON_0.26 1.7
 _ZN14MirInputDevice18touchscreen_configEv@MIR_COMMON_0.26 1.7
 _ZN14MirInputDevice19set_keyboard_configERK17MirKeyboardConfig@MIR_COMMON_0.26 1.7
 _ZN14MirInputDevice19set_touchpad_configERK17MirTouchpadConfig@MIR_COMMON_0.26 1.7
 _ZN14MirInputDevice22set_touchscreen_configERK20MirTouchscreenConfig@MIR_COMMON_0.26 1.7
 _ZN14MirInputDeviceC1EOS_@MIR_COMMON_0.26 1.7
 _ZN14MirInputDeviceC1ERKS_@MIR_COMMON_0.26 1.7
 _ZN14MirInputDeviceC1Ev@MIR_COMMON_0.26 1.7
 (subst)_ZN14MirInputDeviceC1E{int64_t}N3mir5FlagsINS0_5input16DeviceCapabilityEEERKNSt7__cxx1112basic_stringIcSt11char_traitsIcESaIcEEESC_@MIR_COMMON_0.26 1.7
 _ZN14MirInputDeviceC2EOS_@MIR_COMMON_0.26 1.7
 _ZN14MirInputDeviceC2ERKS_@MIR_COMMON_0.26 1.7
 _ZN14MirInputDeviceC2Ev@MIR_COMMON_0.26 1.7
 (subst)_ZN14MirInputDeviceC2E{int64_t}N3mir5FlagsINS0_5input16DeviceCapabilityEEERKNSt7__cxx1112basic_stringIcSt11char_traitsIcESaIcEEESC_@MIR_COMMON_0.26 1.7
 _ZN14MirInputDeviceD1Ev@MIR_COMMON_0.26 1.7
 _ZN14MirInputDeviceD2Ev@MIR_COMMON_0.26 1.7
 _ZN14MirInputDeviceaSERKS_@MIR_COMMON_0.26 1.7
 _ZN14MirKeymapEvent10set_bufferEPKc@MIR_COMMON_0.27_PRIVATE 1.7
 (subst)_ZN14MirKeymapEvent13set_device_idE{int64_t}@MIR_COMMON_0.27_PRIVATE 1.7
 _ZN14MirKeymapEvent14set_surface_idEi@MIR_COMMON_0.27_PRIVATE 1.7
 _ZN14MirKeymapEventC1Ev@MIR_COMMON_0.27_PRIVATE 1.7
 _ZN14MirKeymapEventC2Ev@MIR_COMMON_0.27_PRIVATE 1.7
 _ZN14MirResizeEvent10set_heightEi@MIR_COMMON_0.27_PRIVATE 1.7
 _ZN14MirResizeEvent14set_surface_idEi@MIR_COMMON_0.27_PRIVATE 1.7
 _ZN14MirResizeEvent9set_widthEi@MIR_COMMON_0.27_PRIVATE 1.7
 _ZN14MirResizeEventC1Ev@MIR_COMMON_0.27_PRIVATE 1.7
 _ZN14MirResizeEventC2Ev@MIR_COMMON_0.27_PRIVATE 1.7
 _ZN15MirPointerEvent10set_actionE16MirPointerAction@MIR_COMMON_0.27_PRIVATE 1.7
 _ZN15MirPointerEvent11set_buttonsEj@MIR_COMMON_0.27_PRIVATE 1.7
 _ZN15MirPointerEvent11set_hscrollEf@MIR_COMMON_0.27_PRIVATE 1.7
 _ZN15MirPointerEvent11set_vscrollEf@MIR_COMMON_0.27_PRIVATE 1.7
 _ZN15MirPointerEvent14set_dnd_handleERKSt6vectorIhSaIhEE@MIR_COMMON_0.27 1.7
 _ZN15MirPointerEvent5set_xEf@MIR_COMMON_0.27_PRIVATE 1.7
 _ZN15MirPointerEvent5set_yEf@MIR_COMMON_0.27_PRIVATE 1.7
 _ZN15MirPointerEvent6set_dxEf@MIR_COMMON_0.27_PRIVATE 1.7
 _ZN15MirPointerEvent6set_dyEf@MIR_COMMON_0.27_PRIVATE 1.7
 _ZN15MirPointerEventC1Ev@MIR_COMMON_0.27_PRIVATE 1.7
 (subst)_ZN15MirPointerEventC1E{int64_t}NSt6chrono8durationI{int64_t}St5ratioIL{int64_t}1EL{int64_t}1000000000EEEEjRKSt6vectorIhSaIhEE16MirPointerActionjffffff@MIR_COMMON_0.27_PRIVATE 1.7
 _ZN15MirPointerEventC2Ev@MIR_COMMON_0.27_PRIVATE 1.7
 (subst)_ZN15MirPointerEventC2E{int64_t}NSt6chrono8durationI{int64_t}St5ratioIL{int64_t}1EL{int64_t}1000000000EEEEjRKSt6vectorIhSaIhEE16MirPointerActionjffffff@MIR_COMMON_0.27_PRIVATE 1.7
 _ZN15MirSurfaceEvent10set_attribE15MirWindowAttrib@MIR_COMMON_0.27_PRIVATE 1.7
 _ZN15MirSurfaceEvent14set_dnd_handleERKSt6vectorIhSaIhEE@MIR_COMMON_0.27 1.7
 _ZN15MirSurfaceEvent6set_idEi@MIR_COMMON_0.27_PRIVATE 1.7
 _ZN15MirSurfaceEvent9set_valueEi@MIR_COMMON_0.27_PRIVATE 1.7
 _ZN15MirSurfaceEventC1Ev@MIR_COMMON_0.27_PRIVATE 1.7
 _ZN15MirSurfaceEventC2Ev@MIR_COMMON_0.27_PRIVATE 1.7
 _ZN16MirKeyboardEvent10set_actionE17MirKeyboardAction@MIR_COMMON_0.27_PRIVATE 1.7
 _ZN16MirKeyboardEvent12set_key_codeEi@MIR_COMMON_0.27_PRIVATE 1.7
 _ZN16MirKeyboardEvent13set_scan_codeEi@MIR_COMMON_0.27_PRIVATE 1.7
 _ZN16MirKeyboardEvent8set_textEPKc@MIR_COMMON_0.27 1.7
 _ZN16MirKeyboardEventC1Ev@MIR_COMMON_0.27_PRIVATE 1.7
 _ZN16MirKeyboardEventC2Ev@MIR_COMMON_0.27_PRIVATE 1.7
 _ZN16MirPointerConfig10handednessE20MirPointerHandedness@MIR_COMMON_0.26 1.7
 _ZN16MirPointerConfig12accelerationE22MirPointerAcceleration@MIR_COMMON_0.26 1.7
 _ZN16MirPointerConfig21vertical_scroll_scaleEd@MIR_COMMON_0.26 1.7
 _ZN16MirPointerConfig23horizontal_scroll_scaleEd@MIR_COMMON_0.26 1.7
 _ZN16MirPointerConfig24cursor_acceleration_biasEd@MIR_COMMON_0.26 1.7
 _ZN16MirPointerConfigC1E20MirPointerHandedness22MirPointerAccelerationddd@MIR_COMMON_0.26 1.7
 _ZN16MirPointerConfigC1EOS_@MIR_COMMON_0.26 1.7
 _ZN16MirPointerConfigC1ERKS_@MIR_COMMON_0.26 1.7
 _ZN16MirPointerConfigC1Ev@MIR_COMMON_0.26 1.7
 _ZN16MirPointerConfigC2E20MirPointerHandedness22MirPointerAccelerationddd@MIR_COMMON_0.26 1.7
 _ZN16MirPointerConfigC2EOS_@MIR_COMMON_0.26 1.7
 _ZN16MirPointerConfigC2ERKS_@MIR_COMMON_0.26 1.7
 _ZN16MirPointerConfigC2Ev@MIR_COMMON_0.26 1.7
 _ZN16MirPointerConfigD1Ev@MIR_COMMON_0.26 1.7
 _ZN16MirPointerConfigD2Ev@MIR_COMMON_0.26 1.7
 _ZN16MirPointerConfigaSERKS_@MIR_COMMON_0.26 1.7
 _ZN17MirKeyboardConfig13device_keymapERKN3mir5input6KeymapE@MIR_COMMON_0.26 1.7
 _ZN17MirKeyboardConfig13device_keymapEv@MIR_COMMON_0.26 1.7
 _ZN17MirKeyboardConfigC1EON3mir5input6KeymapE@MIR_COMMON_0.26 1.7
 _ZN17MirKeyboardConfigC1EOS_@MIR_COMMON_0.26 1.7
 _ZN17MirKeyboardConfigC1ERKS_@MIR_COMMON_0.26 1.7
 _ZN17MirKeyboardConfigC1Ev@MIR_COMMON_0.26 1.7
 _ZN17MirKeyboardConfigC2EON3mir5input6KeymapE@MIR_COMMON_0.26 1.7
 _ZN17MirKeyboardConfigC2EOS_@MIR_COMMON_0.26 1.7
 _ZN17MirKeyboardConfigC2ERKS_@MIR_COMMON_0.26 1.7
 _ZN17MirKeyboardConfigC2Ev@MIR_COMMON_0.26 1.7
 _ZN17MirKeyboardConfigD1Ev@MIR_COMMON_0.26 1.7
 _ZN17MirKeyboardConfigD2Ev@MIR_COMMON_0.26 1.7
 _ZN17MirKeyboardConfigaSERKS_@MIR_COMMON_0.26 1.7
 _ZN17MirTouchpadConfig10click_modeEj@MIR_COMMON_0.26 1.7
 _ZN17MirTouchpadConfig11scroll_modeEj@MIR_COMMON_0.26 1.7
 _ZN17MirTouchpadConfig12tap_to_clickEb@MIR_COMMON_0.26 1.7
 _ZN17MirTouchpadConfig18disable_with_mouseEb@MIR_COMMON_0.26 1.7
 _ZN17MirTouchpadConfig20disable_while_typingEb@MIR_COMMON_0.26 1.7
 _ZN17MirTouchpadConfig25button_down_scroll_buttonEi@MIR_COMMON_0.26 1.7
 _ZN17MirTouchpadConfig29middle_mouse_button_emulationEb@MIR_COMMON_0.26 1.7
 _ZN17MirTouchpadConfigC1EOS_@MIR_COMMON_0.26 1.7
 _ZN17MirTouchpadConfigC1ERKS_@MIR_COMMON_0.26 1.7
 _ZN17MirTouchpadConfigC1Ejjibbbb@MIR_COMMON_0.26 1.7
 _ZN17MirTouchpadConfigC1Ev@MIR_COMMON_0.26 1.7
 _ZN17MirTouchpadConfigC2EOS_@MIR_COMMON_0.26 1.7
 _ZN17MirTouchpadConfigC2ERKS_@MIR_COMMON_0.26 1.7
 _ZN17MirTouchpadConfigC2Ejjibbbb@MIR_COMMON_0.26 1.7
 _ZN17MirTouchpadConfigC2Ev@MIR_COMMON_0.26 1.7
 _ZN17MirTouchpadConfigD1Ev@MIR_COMMON_0.26 1.7
 _ZN17MirTouchpadConfigD2Ev@MIR_COMMON_0.26 1.7
 _ZN17MirTouchpadConfigaSERKS_@MIR_COMMON_0.26 1.7
 _ZN19MirOrientationEvent13set_directionE14MirOrientation@MIR_COMMON_0.27_PRIVATE 1.7
 _ZN19MirOrientationEvent14set_surface_idEi@MIR_COMMON_0.27_PRIVATE 1.7
 _ZN19MirOrientationEventC1Ev@MIR_COMMON_0.27_PRIVATE 1.7
 _ZN19MirOrientationEventC2Ev@MIR_COMMON_0.27_PRIVATE 1.7
 _ZN20MirCloseSurfaceEvent14set_surface_idEi@MIR_COMMON_0.27_PRIVATE 1.7
 _ZN20MirCloseSurfaceEventC1Ev@MIR_COMMON_0.27_PRIVATE 1.7
 _ZN20MirCloseSurfaceEventC2Ev@MIR_COMMON_0.27_PRIVATE 1.7
 _ZN20MirTouchscreenConfig12mapping_modeE25MirTouchscreenMappingMode@MIR_COMMON_0.26 1.7
 _ZN20MirTouchscreenConfig9output_idEj@MIR_COMMON_0.26 1.7
 _ZN20MirTouchscreenConfigC1EOS_@MIR_COMMON_0.26 1.7
 _ZN20MirTouchscreenConfigC1ERKS_@MIR_COMMON_0.26 1.7
 _ZN20MirTouchscreenConfigC1Ej25MirTouchscreenMappingMode@MIR_COMMON_0.26 1.7
 _ZN20MirTouchscreenConfigC1Ev@MIR_COMMON_0.26 1.7
 _ZN20MirTouchscreenConfigC2EOS_@MIR_COMMON_0.26 1.7
 _ZN20MirTouchscreenConfigC2ERKS_@MIR_COMMON_0.26 1.7
 _ZN20MirTouchscreenConfigC2Ej25MirTouchscreenMappingMode@MIR_COMMON_0.26 1.7
 _ZN20MirTouchscreenConfigC2Ev@MIR_COMMON_0.26 1.7
 _ZN20MirTouchscreenConfigD1Ev@MIR_COMMON_0.26 1.7
 _ZN20MirTouchscreenConfigD2Ev@MIR_COMMON_0.26 1.7
 _ZN20MirTouchscreenConfigaSERKS_@MIR_COMMON_0.26 1.7
 _ZN21MirPromptSessionEvent13set_new_stateE21MirPromptSessionState@MIR_COMMON_0.27_PRIVATE 1.7
 _ZN21MirPromptSessionEventC1Ev@MIR_COMMON_0.27_PRIVATE 1.7
 _ZN21MirPromptSessionEventC2Ev@MIR_COMMON_0.27_PRIVATE 1.7
 _ZN21MirSurfaceOutputEvent13set_output_idEj@MIR_COMMON_0.27_PRIVATE 1.7
 _ZN21MirSurfaceOutputEvent14set_surface_idEi@MIR_COMMON_0.27_PRIVATE 1.7
 _ZN21MirSurfaceOutputEvent15set_form_factorE13MirFormFactor@MIR_COMMON_0.27_PRIVATE 1.7
 _ZN21MirSurfaceOutputEvent16set_refresh_rateEd@MIR_COMMON_0.27_PRIVATE 1.7
 _ZN21MirSurfaceOutputEvent7set_dpiEi@MIR_COMMON_0.27_PRIVATE 1.7
 _ZN21MirSurfaceOutputEvent9set_scaleEf@MIR_COMMON_0.27_PRIVATE 1.7
 _ZN21MirSurfaceOutputEventC1Ev@MIR_COMMON_0.27_PRIVATE 1.7
 _ZN21MirSurfaceOutputEventC2Ev@MIR_COMMON_0.27_PRIVATE 1.7
 _ZN24MirInputDeviceStateEvent13set_modifiersEj@MIR_COMMON_0.27_PRIVATE 1.7
 _ZN24MirInputDeviceStateEvent13set_window_idEi@MIR_COMMON_0.27 1.7
 _ZN24MirInputDeviceStateEvent16set_pointer_axisEjf@MIR_COMMON_0.27_PRIVATE 1.7
 _ZN24MirInputDeviceStateEvent17set_device_statesERKSt6vectorIN3mir6events16InputDeviceStateESaIS3_EE@MIR_COMMON_0.27_PRIVATE 1.7
 _ZN24MirInputDeviceStateEvent19set_pointer_buttonsEj@MIR_COMMON_0.27_PRIVATE 1.7
 (subst)_ZN24MirInputDeviceStateEvent8set_whenERKNSt6chrono8durationI{int64_t}St5ratioIL{int64_t}1EL{int64_t}1000000000EEEE@MIR_COMMON_0.27_PRIVATE 1.7
 _ZN24MirInputDeviceStateEventC1Ev@MIR_COMMON_0.27_PRIVATE 1.7
 _ZN24MirInputDeviceStateEventC2Ev@MIR_COMMON_0.27_PRIVATE 1.7
 _ZN24MirSurfacePlacementEvent13set_placementERK12MirRectangle@MIR_COMMON_0.27_PRIVATE 1.7
 _ZN24MirSurfacePlacementEvent6set_idEi@MIR_COMMON_0.27_PRIVATE 1.7
 _ZN24MirSurfacePlacementEventC1Ev@MIR_COMMON_0.27_PRIVATE 1.7
 _ZN24MirSurfacePlacementEventC2Ev@MIR_COMMON_0.27_PRIVATE 1.7
 _ZN26MirInputConfigurationEvent10set_actionE27MirInputConfigurationAction@MIR_COMMON_0.27_PRIVATE 1.7
 (subst)_ZN26MirInputConfigurationEvent6set_idE{int64_t}@MIR_COMMON_0.27_PRIVATE 1.7
 (subst)_ZN26MirInputConfigurationEvent8set_whenERKNSt6chrono8durationI{int64_t}St5ratioIL{int64_t}1EL{int64_t}1000000000EEEE@MIR_COMMON_0.27_PRIVATE 1.7
 _ZN26MirInputConfigurationEventC1Ev@MIR_COMMON_0.27_PRIVATE 1.7
 _ZN26MirInputConfigurationEventC2Ev@MIR_COMMON_0.27_PRIVATE 1.7
 _ZN3mir12PosixRWMutex11lock_sharedEv@MIR_COMMON_0.27_PRIVATE 1.7
 _ZN3mir12PosixRWMutex13unlock_sharedEv@MIR_COMMON_0.27_PRIVATE 1.7
 _ZN3mir12PosixRWMutex15try_lock_sharedEv@MIR_COMMON_0.27_PRIVATE 1.7
 _ZN3mir12PosixRWMutex4lockEv@MIR_COMMON_0.27_PRIVATE 1.7
 _ZN3mir12PosixRWMutex6unlockEv@MIR_COMMON_0.27_PRIVATE 1.7
 _ZN3mir12PosixRWMutex8try_lockEv@MIR_COMMON_0.27_PRIVATE 1.7
 _ZN3mir12PosixRWMutexC1ENS0_4TypeE@MIR_COMMON_0.27_PRIVATE 1.7
 _ZN3mir12PosixRWMutexC1Ev@MIR_COMMON_0.27_PRIVATE 1.7
 _ZN3mir12PosixRWMutexC2ENS0_4TypeE@MIR_COMMON_0.27_PRIVATE 1.7
 _ZN3mir12PosixRWMutexC2Ev@MIR_COMMON_0.27_PRIVATE 1.7
 _ZN3mir12PosixRWMutexD1Ev@MIR_COMMON_0.27_PRIVATE 1.7
 _ZN3mir12PosixRWMutexD2Ev@MIR_COMMON_0.27_PRIVATE 1.7
 (subst)_ZN3mir12receive_dataERKNS_2FdEPv{size_t}RSt6vectorIS0_SaIS0_EE@MIR_COMMON_0.25 1.7
 _ZN3mir12socket_errorC1ERKNSt7__cxx1112basic_stringIcSt11char_traitsIcESaIcEEE@MIR_COMMON_0.25 1.7
 _ZN3mir12socket_errorC2ERKNSt7__cxx1112basic_stringIcSt11char_traitsIcESaIcEEE@MIR_COMMON_0.25 1.7
 _ZN3mir13SharedLibraryC1EPKc@MIR_COMMON_0.25 1.7
 _ZN3mir13SharedLibraryC1ERKNSt7__cxx1112basic_stringIcSt11char_traitsIcESaIcEEE@MIR_COMMON_0.25 1.7
 _ZN3mir13SharedLibraryC2EPKc@MIR_COMMON_0.25 1.7
 _ZN3mir13SharedLibraryC2ERKNSt7__cxx1112basic_stringIcSt11char_traitsIcESaIcEEE@MIR_COMMON_0.25 1.7
 _ZN3mir13SharedLibraryD1Ev@MIR_COMMON_0.25 1.7
 _ZN3mir13SharedLibraryD2Ev@MIR_COMMON_0.25 1.7
 _ZN3mir13SignalBlockerC1Ev@MIR_COMMON_0.25 1.7
 _ZN3mir13SignalBlockerC2Ev@MIR_COMMON_0.25 1.7
 _ZN3mir13SignalBlockerD1Ev@MIR_COMMON_0.25 1.7
 _ZN3mir13SignalBlockerD2Ev@MIR_COMMON_0.25 1.7
 _ZN3mir15set_thread_nameERKNSt7__cxx1112basic_stringIcSt11char_traitsIcESaIcEEE@MIR_COMMON_0.25 1.7
 _ZN3mir16output_type_nameEj@MIR_COMMON_0.27_PRIVATE 1.7
 _ZN3mir18fd_reception_errorC1ERKNSt7__cxx1112basic_stringIcSt11char_traitsIcESaIcEEE@MIR_COMMON_0.25 1.7
 _ZN3mir18fd_reception_errorC2ERKNSt7__cxx1112basic_stringIcSt11char_traitsIcESaIcEEE@MIR_COMMON_0.25 1.7
 _ZN3mir18libraries_for_pathERKNSt7__cxx1112basic_stringIcSt11char_traitsIcESaIcEEERNS_25SharedLibraryProberReportE@MIR_COMMON_0.25 1.7
 _ZN3mir21default_server_socketE@MIR_COMMON_0.25 1.7
 _ZN3mir23RecursiveReadWriteMutex10write_lockEv@MIR_COMMON_0.25 1.7
 _ZN3mir23RecursiveReadWriteMutex11read_unlockEv@MIR_COMMON_0.25 1.7
 _ZN3mir23RecursiveReadWriteMutex12write_unlockEv@MIR_COMMON_0.25 1.7
 _ZN3mir23RecursiveReadWriteMutex9read_lockEv@MIR_COMMON_0.25 1.7
 (optional=templinst)_ZN3mir25select_libraries_for_pathERKNSt7__cxx1112basic_stringIcSt11char_traitsIcESaIcEEERKSt8functionIFNS_9SelectionERKSt10shared_ptrINS_13SharedLibraryEEEERNS_25SharedLibraryProberReportE@MIR_COMMON_0.25 1.7
 _ZN3mir25socket_disconnected_errorC1ERKNSt7__cxx1112basic_stringIcSt11char_traitsIcESaIcEEE@MIR_COMMON_0.25 1.7
 _ZN3mir25socket_disconnected_errorC2ERKNSt7__cxx1112basic_stringIcSt11char_traitsIcESaIcEEE@MIR_COMMON_0.25 1.7
 (arch=mips64el ppc64 s390x)_ZN3mir25socket_disconnected_errorD0Ev@MIR_COMMON_0.25 1.8.0+dfsg1
 (arch=mips64el ppc64 s390x)_ZN3mir25socket_disconnected_errorD1Ev@MIR_COMMON_0.25 1.8.0+dfsg1
 (arch=mips64el ppc64 s390x)_ZN3mir25socket_disconnected_errorD2Ev@MIR_COMMON_0.25 1.8.0+dfsg1
 _ZN3mir25socket_error_is_transientEi@MIR_COMMON_0.25 1.7
 _ZN3mir3logENS_7logging8SeverityEPKcRKNSt15__exception_ptr13exception_ptrERKNSt7__cxx1112basic_stringIcSt11char_traitsIcESaIcEEE@MIR_COMMON_0.25 1.7
 _ZN3mir3logENS_7logging8SeverityEPKcRKNSt7__cxx1112basic_stringIcSt11char_traitsIcESaIcEEE@MIR_COMMON_0.25 1.7
 _ZN3mir3logENS_7logging8SeverityEPKcS3_z@MIR_COMMON_0.25 1.7
 (arch=alpha sh4)_ZN3mir4logvENS_7logging8SeverityEPKcS3_13__va_list_tag@MIR_COMMON_0.25 1.8.0+dfsg1
 (arch=amd64 powerpc s390x x32)_ZN3mir4logvENS_7logging8SeverityEPKcS3_P13__va_list_tag@MIR_COMMON_0.25 1.8.0+dfsg1
 (arch=i386 ppc64 ppc64el)_ZN3mir4logvENS_7logging8SeverityEPKcS3_Pc@MIR_COMMON_0.25 1.8.0+dfsg1
 (arch=hppa m68k mips64el mipsel riscv64 sparc64)_ZN3mir4logvENS_7logging8SeverityEPKcS3_Pv@MIR_COMMON_0.25 1.8.0+dfsg1
 (arch=arm64 armel armhf)_ZN3mir4logvENS_7logging8SeverityEPKcS3_St9__va_list@MIR_COMMON_0.25 1.8.0+dfsg1
 _ZN3mir5input22serialize_input_configB5cxx11ERK14MirInputConfig@MIR_COMMON_0.26 1.7
 _ZN3mir5input24deserialize_input_configERKNSt7__cxx1112basic_stringIcSt11char_traitsIcESaIcEEE@MIR_COMMON_0.26 1.7
 _ZN3mir6detail12libname_implEPv@MIR_COMMON_0.27_PRIVATE 1.7
 _ZN3mir6detail17RefCountedLibraryC1EPv@MIR_COMMON_0.25 1.7
 _ZN3mir6detail17RefCountedLibraryC1ERKS1_@MIR_COMMON_0.25 1.7
 _ZN3mir6detail17RefCountedLibraryC2EPv@MIR_COMMON_0.25 1.7
 _ZN3mir6detail17RefCountedLibraryC2ERKS1_@MIR_COMMON_0.25 1.7
 _ZN3mir6detail17RefCountedLibraryD1Ev@MIR_COMMON_0.25 1.7
 _ZN3mir6detail17RefCountedLibraryD2Ev@MIR_COMMON_0.25 1.7
 _ZN3mir6detail17RefCountedLibraryaSERKS1_@MIR_COMMON_0.25 1.7
 _ZN3mir6report5lttng18TracepointProviderC1ERKNSt7__cxx1112basic_stringIcSt11char_traitsIcESaIcEEE@MIR_COMMON_0.25 1.7
 _ZN3mir6report5lttng18TracepointProviderC2ERKNSt7__cxx1112basic_stringIcSt11char_traitsIcESaIcEEE@MIR_COMMON_0.25 1.7
 _ZN3mir6report5lttng18TracepointProviderD1Ev@MIR_COMMON_0.25 1.7
 _ZN3mir6report5lttng18TracepointProviderD2Ev@MIR_COMMON_0.25 1.7
 _ZN3mir7logging10set_loggerERKSt10shared_ptrINS0_6LoggerEE@MIR_COMMON_0.25 1.7
 (subst)_ZN3mir7logging15input_timestampB5cxx11ENSt6chrono8durationI{int64_t}St5ratioIL{int64_t}1EL{int64_t}1000000000EEEE@MIR_COMMON_0.25 1.7
 _ZN3mir7logging17DumbConsoleLogger3logENS0_8SeverityERKNSt7__cxx1112basic_stringIcSt11char_traitsIcESaIcEEESA_@MIR_COMMON_0.25 1.7
 (arch=mips64el ppc64 s390x)_ZN3mir7logging17DumbConsoleLoggerD0Ev@MIR_COMMON_0.25 1.8.0+dfsg1
 (arch=mips64el ppc64 s390x)_ZN3mir7logging17DumbConsoleLoggerD1Ev@MIR_COMMON_0.25 1.8.0+dfsg1
 (arch=mips64el ppc64 s390x)_ZN3mir7logging17DumbConsoleLoggerD2Ev@MIR_COMMON_0.25 1.8.0+dfsg1
 _ZN3mir7logging25SharedLibraryProberReport12probing_pathERKN5boost10filesystem4pathE@MIR_COMMON_0.25 1.7
 _ZN3mir7logging25SharedLibraryProberReport14loading_failedERKN5boost10filesystem4pathERKSt9exception@MIR_COMMON_0.25 1.7
 _ZN3mir7logging25SharedLibraryProberReport14probing_failedERKN5boost10filesystem4pathERKSt9exception@MIR_COMMON_0.25 1.7
 _ZN3mir7logging25SharedLibraryProberReport15loading_libraryERKN5boost10filesystem4pathE@MIR_COMMON_0.25 1.7
 _ZN3mir7logging25SharedLibraryProberReportC1ERKSt10shared_ptrINS0_6LoggerEE@MIR_COMMON_0.25 1.7
 _ZN3mir7logging25SharedLibraryProberReportC2ERKSt10shared_ptrINS0_6LoggerEE@MIR_COMMON_0.25 1.7
 (arch=mips64el ppc64 s390x)_ZN3mir7logging25SharedLibraryProberReportD0Ev@MIR_COMMON_0.25 1.8.0+dfsg1
 (arch=mips64el ppc64 s390x)_ZN3mir7logging25SharedLibraryProberReportD1Ev@MIR_COMMON_0.25 1.8.0+dfsg1
 (arch=mips64el ppc64 s390x)_ZN3mir7logging25SharedLibraryProberReportD2Ev@MIR_COMMON_0.25 1.8.0+dfsg1
 _ZN3mir7logging3logENS0_8SeverityERKNSt7__cxx1112basic_stringIcSt11char_traitsIcESaIcEEE@MIR_COMMON_0.25 1.7
 _ZN3mir7logging3logENS0_8SeverityERKNSt7__cxx1112basic_stringIcSt11char_traitsIcESaIcEEES9_@MIR_COMMON_0.25 1.7
 _ZN3mir7logging6Logger3logEPKcNS0_8SeverityES3_z@MIR_COMMON_0.25 1.7
 _ZN3mir8dispatch10ReadableFd8dispatchEj@MIR_COMMON_0.25 1.7
 _ZN3mir8dispatch10ReadableFdC1ENS_2FdERKSt8functionIFvvEE@MIR_COMMON_0.25 1.7
 _ZN3mir8dispatch10ReadableFdC2ENS_2FdERKSt8functionIFvvEE@MIR_COMMON_0.25 1.7
 _ZN3mir8dispatch11ActionQueue7enqueueERKSt8functionIFvvEE@MIR_COMMON_0.25 1.7
 _ZN3mir8dispatch11ActionQueue8dispatchEj@MIR_COMMON_0.25 1.7
 _ZN3mir8dispatch11ActionQueueC1Ev@MIR_COMMON_0.25 1.7
 _ZN3mir8dispatch11ActionQueueC2Ev@MIR_COMMON_0.25 1.7
 _ZN3mir8dispatch17epoll_to_fd_eventERK11epoll_event@MIR_COMMON_0.27_PRIVATE 1.7
 _ZN3mir8dispatch17fd_event_to_epollERKj@MIR_COMMON_0.27_PRIVATE 1.7
 _ZN3mir8dispatch18ThreadedDispatcher10add_threadEv@MIR_COMMON_0.25 1.7
 _ZN3mir8dispatch18ThreadedDispatcher13remove_threadEv@MIR_COMMON_0.25 1.7
 _ZN3mir8dispatch18ThreadedDispatcherC1ERKNSt7__cxx1112basic_stringIcSt11char_traitsIcESaIcEEERKSt10shared_ptrINS0_12DispatchableEE@MIR_COMMON_0.25 1.7
 (optional=templinst)_ZN3mir8dispatch18ThreadedDispatcherC1ERKNSt7__cxx1112basic_stringIcSt11char_traitsIcESaIcEEERKSt10shared_ptrINS0_12DispatchableEERKSt8functionIFvvEE@MIR_COMMON_0.25 1.7
 _ZN3mir8dispatch18ThreadedDispatcherC2ERKNSt7__cxx1112basic_stringIcSt11char_traitsIcESaIcEEERKSt10shared_ptrINS0_12DispatchableEE@MIR_COMMON_0.25 1.7
 (optional=templinst)_ZN3mir8dispatch18ThreadedDispatcherC2ERKNSt7__cxx1112basic_stringIcSt11char_traitsIcESaIcEEERKSt10shared_ptrINS0_12DispatchableEERKSt8functionIFvvEE@MIR_COMMON_0.25 1.7
 _ZN3mir8dispatch18ThreadedDispatcherD1Ev@MIR_COMMON_0.25 1.7
 _ZN3mir8dispatch18ThreadedDispatcherD2Ev@MIR_COMMON_0.25 1.7
 _ZN3mir8dispatch24MultiplexingDispatchable12remove_watchERKNS_2FdE@MIR_COMMON_0.25 1.7
 _ZN3mir8dispatch24MultiplexingDispatchable12remove_watchERKSt10shared_ptrINS0_12DispatchableEE@MIR_COMMON_0.25 1.7
 _ZN3mir8dispatch24MultiplexingDispatchable8dispatchEj@MIR_COMMON_0.25 1.7
 _ZN3mir8dispatch24MultiplexingDispatchable9add_watchERKNS_2FdERKSt8functionIFvvEE@MIR_COMMON_0.25 1.7
 _ZN3mir8dispatch24MultiplexingDispatchable9add_watchERKSt10shared_ptrINS0_12DispatchableEE@MIR_COMMON_0.25 1.7
 _ZN3mir8dispatch24MultiplexingDispatchable9add_watchERKSt10shared_ptrINS0_12DispatchableEENS0_18DispatchReentrancyE@MIR_COMMON_0.25 1.7
 _ZN3mir8dispatch24MultiplexingDispatchableC1ESt16initializer_listISt10shared_ptrINS0_12DispatchableEEE@MIR_COMMON_0.25 1.7
 _ZN3mir8dispatch24MultiplexingDispatchableC1Ev@MIR_COMMON_0.25 1.7
 _ZN3mir8dispatch24MultiplexingDispatchableC2ESt16initializer_listISt10shared_ptrINS0_12DispatchableEEE@MIR_COMMON_0.25 1.8.0+dfsg1
 _ZN3mir8dispatch24MultiplexingDispatchableC2Ev@MIR_COMMON_0.25 1.8.0+dfsg1
 _ZN3mir8dispatch24MultiplexingDispatchableD0Ev@MIR_COMMON_0.25 1.7
 _ZN3mir8dispatch24MultiplexingDispatchableD1Ev@MIR_COMMON_0.25 1.7
 _ZN3mir8dispatch24MultiplexingDispatchableD2Ev@MIR_COMMON_0.25 1.8.0+dfsg1
 _ZN3mir8send_fdsERKNS_2FdERKSt6vectorIS0_SaIS0_EE@MIR_COMMON_0.25 1.7
 _ZN8MirEvent10to_surfaceEv@MIR_COMMON_0.27_PRIVATE 1.7
 _ZN8MirEvent11deserializeERKNSt7__cxx1112basic_stringIcSt11char_traitsIcESaIcEEE@MIR_COMMON_0.27_PRIVATE 1.7
 _ZN8MirEvent14to_orientationEv@MIR_COMMON_0.27_PRIVATE 1.7
 _ZN8MirEvent15to_close_windowEv@MIR_COMMON_0.26 1.7
 _ZN8MirEvent16to_window_outputEv@MIR_COMMON_0.26 1.7
 _ZN8MirEvent17to_prompt_sessionEv@MIR_COMMON_0.27_PRIVATE 1.7
 _ZN8MirEvent19to_window_placementEv@MIR_COMMON_0.26 1.7
 _ZN8MirEvent21to_input_device_stateEv@MIR_COMMON_0.27_PRIVATE 1.7
 _ZN8MirEvent22to_input_configurationEv@MIR_COMMON_0.27_PRIVATE 1.7
 _ZN8MirEvent8to_inputEv@MIR_COMMON_0.27_PRIVATE 1.7
 _ZN8MirEvent9serializeB5cxx11EPKS_@MIR_COMMON_0.27_PRIVATE 1.7
 _ZN8MirEvent9to_keymapEv@MIR_COMMON_0.27_PRIVATE 1.7
 _ZN8MirEvent9to_resizeEv@MIR_COMMON_0.27_PRIVATE 1.7
 _ZN8MirEventC1ERKS_@MIR_COMMON_0.27_PRIVATE 1.7
 _ZN8MirEventC2ERKS_@MIR_COMMON_0.27_PRIVATE 1.7
 _ZN8MirEventaSERKS_@MIR_COMMON_0.27_PRIVATE 1.7
 _ZNK13MirInputEvent10event_timeEv@MIR_COMMON_0.27_PRIVATE 1.7
 _ZNK13MirInputEvent10input_typeEv@MIR_COMMON_0.27_PRIVATE 1.7
 _ZNK13MirInputEvent10to_pointerEv@MIR_COMMON_0.27_PRIVATE 1.7
 _ZNK13MirInputEvent11to_keyboardEv@MIR_COMMON_0.27_PRIVATE 1.7
 _ZNK13MirInputEvent6cookieEv@MIR_COMMON_0.27_PRIVATE 1.7
 _ZNK13MirInputEvent8to_touchEv@MIR_COMMON_0.27_PRIVATE 1.7
 _ZNK13MirInputEvent9device_idEv@MIR_COMMON_0.27_PRIVATE 1.7
 _ZNK13MirInputEvent9modifiersEv@MIR_COMMON_0.27_PRIVATE 1.7
 _ZNK13MirInputEvent9window_idEv@MIR_COMMON_0.27 1.7
 (subst)_ZNK13MirTouchEvent11orientationE{size_t}@MIR_COMMON_0.27_PRIVATE 1.7
 (subst)_ZNK13MirTouchEvent11touch_majorE{size_t}@MIR_COMMON_0.27_PRIVATE 1.7
 (subst)_ZNK13MirTouchEvent11touch_minorE{size_t}@MIR_COMMON_0.27_PRIVATE 1.7
 _ZNK13MirTouchEvent13pointer_countEv@MIR_COMMON_0.27_PRIVATE 1.7
 (subst)_ZNK13MirTouchEvent1xE{size_t}@MIR_COMMON_0.27_PRIVATE 1.7
 (subst)_ZNK13MirTouchEvent1yE{size_t}@MIR_COMMON_0.27_PRIVATE 1.7
 (subst)_ZNK13MirTouchEvent2idE{size_t}@MIR_COMMON_0.27_PRIVATE 1.7
 (subst)_ZNK13MirTouchEvent6actionE{size_t}@MIR_COMMON_0.27_PRIVATE 1.7
 (subst)_ZNK13MirTouchEvent8pressureE{size_t}@MIR_COMMON_0.27_PRIVATE 1.7
 (subst)_ZNK13MirTouchEvent9tool_typeE{size_t}@MIR_COMMON_0.27_PRIVATE 1.7
 (subst)_ZNK14MirInputConfig23get_device_config_by_idE{int64_t}@MIR_COMMON_0.26 1.7
 (subst)_ZNK14MirInputConfig26get_device_config_by_indexE{size_t}@MIR_COMMON_0.26 1.7
 _ZNK14MirInputConfig4sizeEv@MIR_COMMON_0.26 1.7
 _ZNK14MirInputConfig8for_eachERKSt8functionIFvRK14MirInputDeviceEE@MIR_COMMON_0.26 1.7
 _ZNK14MirInputConfigeqERKS_@MIR_COMMON_0.26 1.7
 _ZNK14MirInputConfigneERKS_@MIR_COMMON_0.26 1.7
 _ZNK14MirInputDevice12capabilitiesEv@MIR_COMMON_0.26 1.7
 _ZNK14MirInputDevice14pointer_configEv@MIR_COMMON_0.26 1.7
 _ZNK14MirInputDevice15keyboard_configEv@MIR_COMMON_0.26 1.7
 _ZNK14MirInputDevice15touchpad_configEv@MIR_COMMON_0.26 1.7
 _ZNK14MirInputDevice18has_pointer_configEv@MIR_COMMON_0.26 1.7
 _ZNK14MirInputDevice18touchscreen_configEv@MIR_COMMON_0.26 1.7
 _ZNK14MirInputDevice19has_keyboard_configEv@MIR_COMMON_0.26 1.7
 _ZNK14MirInputDevice19has_touchpad_configEv@MIR_COMMON_0.26 1.7
 _ZNK14MirInputDevice22has_touchscreen_configEv@MIR_COMMON_0.26 1.7
 _ZNK14MirInputDevice2idEv@MIR_COMMON_0.26 1.7
 _ZNK14MirInputDevice4nameB5cxx11Ev@MIR_COMMON_0.26 1.7
 _ZNK14MirInputDevice9unique_idB5cxx11Ev@MIR_COMMON_0.26 1.7
 _ZNK14MirInputDeviceeqERKS_@MIR_COMMON_0.26 1.7
 _ZNK14MirInputDeviceneERKS_@MIR_COMMON_0.26 1.7
 _ZNK14MirKeymapEvent10surface_idEv@MIR_COMMON_0.27_PRIVATE 1.7
 _ZNK14MirKeymapEvent4sizeEv@MIR_COMMON_0.27_PRIVATE 1.7
 _ZNK14MirKeymapEvent6bufferEv@MIR_COMMON_0.27_PRIVATE 1.7
 _ZNK14MirKeymapEvent9device_idEv@MIR_COMMON_0.27_PRIVATE 1.7
 _ZNK14MirResizeEvent10surface_idEv@MIR_COMMON_0.27_PRIVATE 1.7
 _ZNK14MirResizeEvent5widthEv@MIR_COMMON_0.27_PRIVATE 1.7
 _ZNK14MirResizeEvent6heightEv@MIR_COMMON_0.27_PRIVATE 1.7
 _ZNK15MirPointerEvent10dnd_handleEv@MIR_COMMON_0.27 1.7
 _ZNK15MirPointerEvent1xEv@MIR_COMMON_0.27_PRIVATE 1.7
 _ZNK15MirPointerEvent1yEv@MIR_COMMON_0.27_PRIVATE 1.7
 _ZNK15MirPointerEvent2dxEv@MIR_COMMON_0.27_PRIVATE 1.7
 _ZNK15MirPointerEvent2dyEv@MIR_COMMON_0.27_PRIVATE 1.7
 _ZNK15MirPointerEvent6actionEv@MIR_COMMON_0.27_PRIVATE 1.7
 _ZNK15MirPointerEvent7buttonsEv@MIR_COMMON_0.27_PRIVATE 1.7
 _ZNK15MirPointerEvent7hscrollEv@MIR_COMMON_0.27_PRIVATE 1.7
 _ZNK15MirPointerEvent7vscrollEv@MIR_COMMON_0.27_PRIVATE 1.7
 _ZNK15MirSurfaceEvent10dnd_handleEv@MIR_COMMON_0.27 1.7
 _ZNK15MirSurfaceEvent2idEv@MIR_COMMON_0.27_PRIVATE 1.7
 _ZNK15MirSurfaceEvent5valueEv@MIR_COMMON_0.27_PRIVATE 1.7
 _ZNK15MirSurfaceEvent6attribEv@MIR_COMMON_0.27_PRIVATE 1.7
 _ZNK16MirKeyboardEvent4textEv@MIR_COMMON_0.27 1.7
 _ZNK16MirKeyboardEvent6actionEv@MIR_COMMON_0.27_PRIVATE 1.7
 _ZNK16MirKeyboardEvent8key_codeEv@MIR_COMMON_0.27_PRIVATE 1.7
 _ZNK16MirKeyboardEvent9scan_codeEv@MIR_COMMON_0.27_PRIVATE 1.7
 _ZNK16MirPointerConfig10handednessEv@MIR_COMMON_0.26 1.7
 _ZNK16MirPointerConfig12accelerationEv@MIR_COMMON_0.26 1.7
 _ZNK16MirPointerConfig21vertical_scroll_scaleEv@MIR_COMMON_0.26 1.7
 _ZNK16MirPointerConfig23horizontal_scroll_scaleEv@MIR_COMMON_0.26 1.7
 _ZNK16MirPointerConfig24cursor_acceleration_biasEv@MIR_COMMON_0.26 1.7
 _ZNK16MirPointerConfigeqERKS_@MIR_COMMON_0.26 1.7
 _ZNK16MirPointerConfigneERKS_@MIR_COMMON_0.26 1.7
 _ZNK17MirKeyboardConfig13device_keymapEv@MIR_COMMON_0.26 1.7
 _ZNK17MirKeyboardConfigeqERKS_@MIR_COMMON_0.26 1.7
 _ZNK17MirKeyboardConfigneERKS_@MIR_COMMON_0.26 1.7
 _ZNK17MirTouchpadConfig10click_modeEv@MIR_COMMON_0.26 1.7
 _ZNK17MirTouchpadConfig11scroll_modeEv@MIR_COMMON_0.26 1.7
 _ZNK17MirTouchpadConfig12tap_to_clickEv@MIR_COMMON_0.26 1.7
 _ZNK17MirTouchpadConfig18disable_with_mouseEv@MIR_COMMON_0.26 1.7
 _ZNK17MirTouchpadConfig20disable_while_typingEv@MIR_COMMON_0.26 1.7
 _ZNK17MirTouchpadConfig25button_down_scroll_buttonEv@MIR_COMMON_0.26 1.7
 _ZNK17MirTouchpadConfig29middle_mouse_button_emulationEv@MIR_COMMON_0.26 1.7
 _ZNK17MirTouchpadConfigeqERKS_@MIR_COMMON_0.26 1.7
 _ZNK17MirTouchpadConfigneERKS_@MIR_COMMON_0.26 1.7
 _ZNK19MirOrientationEvent10surface_idEv@MIR_COMMON_0.27_PRIVATE 1.7
 _ZNK19MirOrientationEvent9directionEv@MIR_COMMON_0.27_PRIVATE 1.7
 _ZNK20MirCloseSurfaceEvent10surface_idEv@MIR_COMMON_0.27_PRIVATE 1.7
 _ZNK20MirTouchscreenConfig12mapping_modeEv@MIR_COMMON_0.26 1.7
 _ZNK20MirTouchscreenConfig9output_idEv@MIR_COMMON_0.26 1.7
 _ZNK20MirTouchscreenConfigeqERKS_@MIR_COMMON_0.26 1.7
 _ZNK20MirTouchscreenConfigneERKS_@MIR_COMMON_0.26 1.7
 _ZNK21MirPromptSessionEvent9new_stateEv@MIR_COMMON_0.27_PRIVATE 1.7
 _ZNK21MirSurfaceOutputEvent10surface_idEv@MIR_COMMON_0.27_PRIVATE 1.7
 _ZNK21MirSurfaceOutputEvent11form_factorEv@MIR_COMMON_0.27_PRIVATE 1.7
 _ZNK21MirSurfaceOutputEvent12refresh_rateEv@MIR_COMMON_0.27_PRIVATE 1.7
 _ZNK21MirSurfaceOutputEvent3dpiEv@MIR_COMMON_0.27_PRIVATE 1.7
 _ZNK21MirSurfaceOutputEvent5scaleEv@MIR_COMMON_0.27_PRIVATE 1.7
 _ZNK21MirSurfaceOutputEvent9output_idEv@MIR_COMMON_0.27_PRIVATE 1.7
 _ZNK24MirInputDeviceStateEvent12device_countEv@MIR_COMMON_0.27_PRIVATE 1.7
 _ZNK24MirInputDeviceStateEvent12pointer_axisE14MirPointerAxis@MIR_COMMON_0.27_PRIVATE 1.7
 _ZNK24MirInputDeviceStateEvent15pointer_buttonsEv@MIR_COMMON_0.27_PRIVATE 1.7
 (subst)_ZNK24MirInputDeviceStateEvent22device_pointer_buttonsE{size_t}@MIR_COMMON_0.27_PRIVATE 1.7
 (subst)_ZNK24MirInputDeviceStateEvent25device_pressed_keys_countE{size_t}@MIR_COMMON_0.27_PRIVATE 1.7
 (subst)_ZNK24MirInputDeviceStateEvent29device_pressed_keys_for_indexE{size_t}{size_t}@MIR_COMMON_0.27_PRIVATE 1.7
 _ZNK24MirInputDeviceStateEvent4whenEv@MIR_COMMON_0.27_PRIVATE 1.7
 (subst)_ZNK24MirInputDeviceStateEvent9device_idE{size_t}@MIR_COMMON_0.27_PRIVATE 1.7
 _ZNK24MirInputDeviceStateEvent9modifiersEv@MIR_COMMON_0.27_PRIVATE 1.7
 _ZNK24MirInputDeviceStateEvent9window_idEv@MIR_COMMON_0.27 1.7
 _ZNK24MirSurfacePlacementEvent2idEv@MIR_COMMON_0.27_PRIVATE 1.7
 _ZNK24MirSurfacePlacementEvent9placementEv@MIR_COMMON_0.27_PRIVATE 1.7
 _ZNK26MirInputConfigurationEvent2idEv@MIR_COMMON_0.27_PRIVATE 1.7
 _ZNK26MirInputConfigurationEvent4whenEv@MIR_COMMON_0.27_PRIVATE 1.7
 _ZNK26MirInputConfigurationEvent6actionEv@MIR_COMMON_0.27_PRIVATE 1.7
 _ZNK3mir13SharedLibrary11load_symbolEPKc@MIR_COMMON_0.25 1.7
 _ZNK3mir13SharedLibrary11load_symbolEPKcS2_@MIR_COMMON_0.25 1.7
 (subst)_ZNK3mir4time11SteadyClock14min_wait_untilENSt6chrono10time_pointINS2_3_V212steady_clockENS2_8durationI{int64_t}St5ratioIL{int64_t}1EL{int64_t}1000000000EEEEEE@MIR_COMMON_0.27_PRIVATE 1.7
 _ZNK3mir4time11SteadyClock3nowEv@MIR_COMMON_0.27_PRIVATE 1.7
 _ZNK3mir8dispatch10ReadableFd15relevant_eventsEv@MIR_COMMON_0.25 1.7
 _ZNK3mir8dispatch10ReadableFd8watch_fdEv@MIR_COMMON_0.25 1.7
 _ZNK3mir8dispatch11ActionQueue15relevant_eventsEv@MIR_COMMON_0.25 1.7
 _ZNK3mir8dispatch11ActionQueue8watch_fdEv@MIR_COMMON_0.25 1.7
 _ZNK3mir8dispatch24MultiplexingDispatchable15relevant_eventsEv@MIR_COMMON_0.25 1.7
 _ZNK3mir8dispatch24MultiplexingDispatchable8watch_fdEv@MIR_COMMON_0.25 1.7
 _ZNK3mir8graphics4Edid10get_stringENS1_20StringDescriptorTypeEPc@MIR_COMMON_0.26 1.7
 _ZNK3mir8graphics4Edid12product_codeEv@MIR_COMMON_0.26 1.7
 _ZNK3mir8graphics4Edid16get_manufacturerEPc@MIR_COMMON_0.26 1.7
 _ZNK3mir8graphics4Edid16get_monitor_nameEPc@MIR_COMMON_0.26 1.7
 _ZNK8MirEvent10to_surfaceEv@MIR_COMMON_0.27_PRIVATE 1.7
 _ZNK8MirEvent14to_orientationEv@MIR_COMMON_0.27_PRIVATE 1.7
 _ZNK8MirEvent15to_close_windowEv@MIR_COMMON_0.26 1.7
 _ZNK8MirEvent16to_window_outputEv@MIR_COMMON_0.26 1.7
 _ZNK8MirEvent17to_prompt_sessionEv@MIR_COMMON_0.27_PRIVATE 1.7
 _ZNK8MirEvent19to_window_placementEv@MIR_COMMON_0.26 1.7
 _ZNK8MirEvent21to_input_device_stateEv@MIR_COMMON_0.27_PRIVATE 1.7
 _ZNK8MirEvent22to_input_configurationEv@MIR_COMMON_0.27_PRIVATE 1.7
 _ZNK8MirEvent4typeEv@MIR_COMMON_0.27_PRIVATE 1.7
 _ZNK8MirEvent8to_inputEv@MIR_COMMON_0.27_PRIVATE 1.7
 _ZNK8MirEvent9to_keymapEv@MIR_COMMON_0.27_PRIVATE 1.7
 _ZNK8MirEvent9to_resizeEv@MIR_COMMON_0.27_PRIVATE 1.7
 _ZTIN3mir12socket_errorE@MIR_COMMON_0.25 1.7
 _ZTIN3mir18fd_reception_errorE@MIR_COMMON_0.25 1.7
 _ZTIN3mir25SharedLibraryProberReportE@MIR_COMMON_0.25 1.7
 _ZTIN3mir25socket_disconnected_errorE@MIR_COMMON_0.25 1.7
 _ZTIN3mir4time11SteadyClockE@MIR_COMMON_0.27_PRIVATE 1.7
 _ZTIN3mir7logging17DumbConsoleLoggerE@MIR_COMMON_0.25 1.7
 _ZTIN3mir7logging25SharedLibraryProberReportE@MIR_COMMON_UBSAN 1.7
 _ZTIN3mir7logging6LoggerE@MIR_COMMON_0.25 1.7
 _ZTIN3mir8dispatch10ReadableFdE@MIR_COMMON_0.25 1.7
 _ZTIN3mir8dispatch11ActionQueueE@MIR_COMMON_0.25 1.7
 _ZTIN3mir8dispatch12DispatchableE@MIR_COMMON_0.25 1.7
 _ZTIN3mir8dispatch24MultiplexingDispatchableE@MIR_COMMON_0.25 1.7
 _ZTVN3mir4time11SteadyClockE@MIR_COMMON_0.25 1.7
 _ZTVN3mir7logging17DumbConsoleLoggerE@MIR_COMMON_0.25 1.7
 _ZTVN3mir7logging6LoggerE@MIR_COMMON_0.25 1.7
 _ZTVN3mir8dispatch10ReadableFdE@MIR_COMMON_0.25 1.7
 _ZTVN3mir8dispatch11ActionQueueE@MIR_COMMON_0.25 1.7
 _ZTVN3mir8dispatch24MultiplexingDispatchableE@MIR_COMMON_0.25 1.7
 _ZlsRSoRK14MirInputConfig@MIR_COMMON_0.26 1.7
 _ZlsRSoRK14MirInputDevice@MIR_COMMON_0.26 1.7
 _ZlsRSoRK16MirPointerConfig@MIR_COMMON_0.26 1.7
 _ZlsRSoRK17MirKeyboardConfig@MIR_COMMON_0.26 1.7
 _ZlsRSoRK17MirTouchpadConfig@MIR_COMMON_0.26 1.7
 _ZlsRSoRK20MirTouchscreenConfig@MIR_COMMON_0.26 1.7
