# SymbolsHelper-Confirmed: 1.8.0+dfsg1 armel armhf hppa i386 m68k mips64el powerpc ppc64 riscv64 s390x sh4 x32
libmirserver.so.53 libmirserver53 #MINVER#
* Build-Depends-Package: libmirserver-dev
 MIR_SERVER_1.6.0@MIR_SERVER_1.6.0 1.7
 MIR_SERVER_1.7.0@MIR_SERVER_1.7.0 1.7
 MIR_SERVER_1.7.1@MIR_SERVER_1.7.1 1.7
 MIR_SERVER_DETAIL_FOR_TESTING_1.4@MIR_SERVER_DETAIL_FOR_TESTING_1.4 1.7
 _ZN3mir16report_exceptionERSo@MIR_SERVER_1.6.0 1.7
 _ZN3mir16report_exceptionEv@MIR_SERVER_1.6.0 1.7
 _ZN3mir26DefaultServerConfiguration10the_cursorEv@MIR_SERVER_DETAIL_FOR_TESTING_1.4 1.7
 _ZN3mir26DefaultServerConfiguration10the_loggerEv@MIR_SERVER_DETAIL_FOR_TESTING_1.4 1.7
 _ZN3mir26DefaultServerConfiguration10wrap_shellERKSt10shared_ptrINS_5shell5ShellEE@MIR_SERVER_DETAIL_FOR_TESTING_1.4 1.7
 _ZN3mir26DefaultServerConfiguration11the_displayEv@MIR_SERVER_DETAIL_FOR_TESTING_1.4 1.7
 _ZN3mir26DefaultServerConfiguration11wrap_cursorERKSt10shared_ptrINS_8graphics6CursorEE@MIR_SERVER_DETAIL_FOR_TESTING_1.4 1.7
 _ZN3mir26DefaultServerConfiguration13the_connectorEv@MIR_SERVER_DETAIL_FOR_TESTING_1.4 1.7
 _ZN3mir26DefaultServerConfiguration13the_gl_configEv@MIR_SERVER_DETAIL_FOR_TESTING_1.4 1.7
 _ZN3mir26DefaultServerConfiguration13the_main_loopEv@MIR_SERVER_DETAIL_FOR_TESTING_1.4 1.7
 _ZN3mir26DefaultServerConfiguration14the_compositorEv@MIR_SERVER_DETAIL_FOR_TESTING_1.4 1.7
 _ZN3mir26DefaultServerConfiguration14the_key_mapperEv@MIR_SERVER_DETAIL_FOR_TESTING_1.4 1.7
 _ZN3mir26DefaultServerConfiguration14the_screencastEv@MIR_SERVER_DETAIL_FOR_TESTING_1.4 1.7
 _ZN3mir26DefaultServerConfiguration15default_reportsEv@MIR_SERVER_1.6.0 1.7
 _ZN3mir26DefaultServerConfiguration15new_ipc_factoryERKSt10shared_ptrINS_8frontend17SessionAuthorizerEE@MIR_SERVER_DETAIL_FOR_TESTING_1.4 1.7
 _ZN3mir26DefaultServerConfiguration15the_input_sceneEv@MIR_SERVER_DETAIL_FOR_TESTING_1.4 1.7
 _ZN3mir26DefaultServerConfiguration16the_input_reportEv@MIR_SERVER_DETAIL_FOR_TESTING_1.4 1.7
 _ZN3mir26DefaultServerConfiguration16the_pixel_bufferEv@MIR_SERVER_DETAIL_FOR_TESTING_1.4 1.7
 _ZN3mir26DefaultServerConfiguration16the_scene_reportEv@MIR_SERVER_DETAIL_FOR_TESTING_1.4 1.7
 _ZN3mir26DefaultServerConfiguration16the_shell_reportEv@MIR_SERVER_DETAIL_FOR_TESTING_1.4 1.7
 _ZN3mir26DefaultServerConfiguration17the_cursor_imagesEv@MIR_SERVER_DETAIL_FOR_TESTING_1.4 1.7
 _ZN3mir26DefaultServerConfiguration17the_input_managerEv@MIR_SERVER_DETAIL_FOR_TESTING_1.4 1.7
 _ZN3mir26DefaultServerConfiguration17the_seat_observerEv@MIR_SERVER_DETAIL_FOR_TESTING_1.4 1.7
 _ZN3mir26DefaultServerConfiguration17the_stop_callbackEv@MIR_SERVER_DETAIL_FOR_TESTING_1.4 1.7
 _ZN3mir26DefaultServerConfiguration17the_surface_stackEv@MIR_SERVER_DETAIL_FOR_TESTING_1.4 1.7
 _ZN3mir26DefaultServerConfiguration18the_display_reportEv@MIR_SERVER_DETAIL_FOR_TESTING_1.4 1.7
 _ZN3mir26DefaultServerConfiguration18the_input_targeterEv@MIR_SERVER_DETAIL_FOR_TESTING_1.4 1.7
 _ZN3mir26DefaultServerConfiguration18wrap_surface_stackERKSt10shared_ptrINS_5shell12SurfaceStackEE@MIR_SERVER_DETAIL_FOR_TESTING_1.4 1.7
 _ZN3mir26DefaultServerConfiguration19the_cursor_listenerEv@MIR_SERVER_DETAIL_FOR_TESTING_1.4 1.7
 _ZN3mir26DefaultServerConfiguration19the_display_changerEv@MIR_SERVER_DETAIL_FOR_TESTING_1.4 1.7
 _ZN3mir26DefaultServerConfiguration19the_host_connectionEv@MIR_SERVER_DETAIL_FOR_TESTING_1.4 1.7
 _ZN3mir26DefaultServerConfiguration19the_surface_factoryEv@MIR_SERVER_DETAIL_FOR_TESTING_1.4 1.7
 _ZN3mir26DefaultServerConfiguration20the_buffer_allocatorEv@MIR_SERVER_DETAIL_FOR_TESTING_1.4 1.7
 _ZN3mir26DefaultServerConfiguration20the_connector_reportEv@MIR_SERVER_DETAIL_FOR_TESTING_1.4 1.7
 _ZN3mir26DefaultServerConfiguration20the_console_servicesEv@MIR_SERVER_DETAIL_FOR_TESTING_1.4 1.7
 _ZN3mir26DefaultServerConfiguration20the_cookie_authorityEv@MIR_SERVER_DETAIL_FOR_TESTING_1.4 1.7
 _ZN3mir26DefaultServerConfiguration20the_input_device_hubEv@MIR_SERVER_DETAIL_FOR_TESTING_1.4 1.7
 _ZN3mir26DefaultServerConfiguration20the_input_dispatcherEv@MIR_SERVER_DETAIL_FOR_TESTING_1.4 1.7
 _ZN3mir26DefaultServerConfiguration20the_prompt_connectorEv@MIR_SERVER_DETAIL_FOR_TESTING_1.4 1.7
 _ZN3mir26DefaultServerConfiguration20the_renderer_factoryEv@MIR_SERVER_DETAIL_FOR_TESTING_1.4 1.7
 _ZN3mir26DefaultServerConfiguration20the_session_listenerEv@MIR_SERVER_DETAIL_FOR_TESTING_1.4 1.7
 _ZN3mir26DefaultServerConfiguration20the_touch_visualizerEv@MIR_SERVER_DETAIL_FOR_TESTING_1.4 1.7
 _ZN3mir26DefaultServerConfiguration20wrap_cursor_listenerERKSt10shared_ptrINS_5input14CursorListenerEE@MIR_SERVER_DETAIL_FOR_TESTING_1.4 1.7
 (optional=templinst)_ZN3mir26DefaultServerConfiguration21add_wayland_extensionERKNSt7__cxx1112basic_stringIcSt11char_traitsIcESaIcEEESt8functionIFSt10shared_ptrIvEP10wl_displayRKS9_IFvOS9_IFvvEEEEEE@MIR_SERVER_1.6.0 1.7
 _ZN3mir26DefaultServerConfiguration21the_compositor_reportEv@MIR_SERVER_DETAIL_FOR_TESTING_1.4 1.7
 _ZN3mir26DefaultServerConfiguration21the_emergency_cleanupEv@MIR_SERVER_DETAIL_FOR_TESTING_1.4 1.7
 _ZN3mir26DefaultServerConfiguration21the_graphics_platformEv@MIR_SERVER_DETAIL_FOR_TESTING_1.4 1.7
 _ZN3mir26DefaultServerConfiguration21the_session_containerEv@MIR_SERVER_DETAIL_FOR_TESTING_1.4 1.7
 _ZN3mir26DefaultServerConfiguration21the_snapshot_strategyEv@MIR_SERVER_DETAIL_FOR_TESTING_1.4 1.7
 _ZN3mir26DefaultServerConfiguration21the_wayland_connectorEv@MIR_SERVER_DETAIL_FOR_TESTING_1.4 1.7
 _ZN3mir26DefaultServerConfiguration22the_connection_creatorEv@MIR_SERVER_DETAIL_FOR_TESTING_1.4 1.7
 _ZN3mir26DefaultServerConfiguration22the_decoration_managerEv@MIR_SERVER_DETAIL_FOR_TESTING_1.4 1.7
 _ZN3mir26DefaultServerConfiguration22the_session_authorizerEv@MIR_SERVER_DETAIL_FOR_TESTING_1.4 1.7
 _ZN3mir26DefaultServerConfiguration22the_session_event_sinkEv@MIR_SERVER_DETAIL_FOR_TESTING_1.4 1.7
 _ZN3mir26DefaultServerConfiguration22the_xwayland_connectorEv@MIR_SERVER_DETAIL_FOR_TESTING_1.4 1.7
 _ZN3mir26DefaultServerConfiguration23the_server_action_queueEv@MIR_SERVER_DETAIL_FOR_TESTING_1.4 1.7
 _ZN3mir26DefaultServerConfiguration23the_session_coordinatorEv@MIR_SERVER_DETAIL_FOR_TESTING_1.4 1.7
 _ZN3mir26DefaultServerConfiguration24the_default_cursor_imageEv@MIR_SERVER_DETAIL_FOR_TESTING_1.4 1.7
 _ZN3mir26DefaultServerConfiguration24the_fatal_error_strategyEv@MIR_SERVER_DETAIL_FOR_TESTING_1.4 1.7
 _ZN3mir26DefaultServerConfiguration24the_shell_display_layoutEv@MIR_SERVER_DETAIL_FOR_TESTING_1.4 1.7
 _ZN3mir26DefaultServerConfiguration25the_buffer_stream_factoryEv@MIR_SERVER_DETAIL_FOR_TESTING_1.4 1.7
 _ZN3mir26DefaultServerConfiguration25the_coordinate_translatorEv@MIR_SERVER_DETAIL_FOR_TESTING_1.4 1.7
 _ZN3mir26DefaultServerConfiguration25the_input_device_registryEv@MIR_SERVER_DETAIL_FOR_TESTING_1.4 1.7
 _ZN3mir26DefaultServerConfiguration26the_composite_event_filterEv@MIR_SERVER_DETAIL_FOR_TESTING_1.4 1.7
 _ZN3mir26DefaultServerConfiguration26the_frontend_surface_stackEv@MIR_SERVER_1.7.0 1.7
 _ZN3mir26DefaultServerConfiguration26the_prompt_session_managerEv@MIR_SERVER_DETAIL_FOR_TESTING_1.4 1.7
 _ZN3mir26DefaultServerConfiguration26the_server_status_listenerEv@MIR_SERVER_DETAIL_FOR_TESTING_1.4 1.7
 _ZN3mir26DefaultServerConfiguration26the_window_manager_builderEv@MIR_SERVER_DETAIL_FOR_TESTING_1.4 1.7
 _ZN3mir26DefaultServerConfiguration27the_prompt_session_listenerEv@MIR_SERVER_DETAIL_FOR_TESTING_1.4 1.7
 _ZN3mir26DefaultServerConfiguration27the_seat_observer_registrarEv@MIR_SERVER_DETAIL_FOR_TESTING_1.4 1.7
 _ZN3mir26DefaultServerConfiguration28set_wayland_extension_filterERKSt8functionIFbRKSt10shared_ptrINS_5scene7SessionEEPKcEE@MIR_SERVER_1.6.0 1.7
 _ZN3mir26DefaultServerConfiguration28the_frontend_display_changerEv@MIR_SERVER_DETAIL_FOR_TESTING_1.4 1.7
 _ZN3mir26DefaultServerConfiguration28the_message_processor_reportEv@MIR_SERVER_DETAIL_FOR_TESTING_1.4 1.7
 _ZN3mir26DefaultServerConfiguration28the_persistent_surface_storeEv@MIR_SERVER_DETAIL_FOR_TESTING_1.4 1.7
 _ZN3mir26DefaultServerConfiguration28the_surface_input_dispatcherEv@MIR_SERVER_DETAIL_FOR_TESTING_1.4 1.7
 _ZN3mir26DefaultServerConfiguration29the_input_reading_multiplexerEv@MIR_SERVER_DETAIL_FOR_TESTING_1.4 1.7
 _ZN3mir26DefaultServerConfiguration29the_mediating_display_changerEv@MIR_SERVER_DETAIL_FOR_TESTING_1.4 1.7
 _ZN3mir26DefaultServerConfiguration29the_prompt_connection_creatorEv@MIR_SERVER_DETAIL_FOR_TESTING_1.4 1.7
 _ZN3mir26DefaultServerConfiguration30set_enabled_wayland_extensionsERKSt6vectorINSt7__cxx1112basic_stringIcSt11char_traitsIcESaIcEEESaIS7_EE@MIR_SERVER_1.6.0 1.7
 _ZN3mir26DefaultServerConfiguration31the_input_configuration_changerEv@MIR_SERVER_DETAIL_FOR_TESTING_1.4 1.7
 _ZN3mir26DefaultServerConfiguration32the_display_configuration_policyEv@MIR_SERVER_DETAIL_FOR_TESTING_1.4 1.7
 _ZN3mir26DefaultServerConfiguration32the_shared_library_prober_reportEv@MIR_SERVER_DETAIL_FOR_TESTING_1.4 1.7
 _ZN3mir26DefaultServerConfiguration33the_event_filter_chain_dispatcherEv@MIR_SERVER_DETAIL_FOR_TESTING_1.4 1.7
 _ZN3mir26DefaultServerConfiguration33the_host_lifecycle_event_listenerEv@MIR_SERVER_DETAIL_FOR_TESTING_1.4 1.7
 _ZN3mir26DefaultServerConfiguration33wrap_display_configuration_policyERKSt10shared_ptrINS_8graphics26DisplayConfigurationPolicyEE@MIR_SERVER_DETAIL_FOR_TESTING_1.4 1.7
 _ZN3mir26DefaultServerConfiguration34the_display_configuration_observerEv@MIR_SERVER_DETAIL_FOR_TESTING_1.4 1.7
 _ZN3mir26DefaultServerConfiguration34the_session_event_handler_registerEv@MIR_SERVER_DETAIL_FOR_TESTING_1.4 1.7
 _ZN3mir26DefaultServerConfiguration36the_display_configuration_controllerEv@MIR_SERVER_DETAIL_FOR_TESTING_1.4 1.7
 _ZN3mir26DefaultServerConfiguration37the_display_buffer_compositor_factoryEv@MIR_SERVER_DETAIL_FOR_TESTING_1.4 1.7
 _ZN3mir26DefaultServerConfiguration38wrap_display_buffer_compositor_factoryERKSt10shared_ptrINS_10compositor30DisplayBufferCompositorFactoryEE@MIR_SERVER_DETAIL_FOR_TESTING_1.4 1.7
 _ZN3mir26DefaultServerConfiguration39the_application_not_responding_detectorEv@MIR_SERVER_DETAIL_FOR_TESTING_1.4 1.7
 _ZN3mir26DefaultServerConfiguration39the_session_mediator_observer_registrarEv@MIR_SERVER_DETAIL_FOR_TESTING_1.4 1.7
 _ZN3mir26DefaultServerConfiguration40wrap_application_not_responding_detectorERKSt10shared_ptrINS_5scene32ApplicationNotRespondingDetectorEE@MIR_SERVER_DETAIL_FOR_TESTING_1.4 1.7
 _ZN3mir26DefaultServerConfiguration44the_display_configuration_observer_registrarEv@MIR_SERVER_DETAIL_FOR_TESTING_1.4 1.7
 _ZN3mir26DefaultServerConfiguration8the_seatEv@MIR_SERVER_DETAIL_FOR_TESTING_1.4 1.7
 _ZN3mir26DefaultServerConfiguration9the_clockEv@MIR_SERVER_DETAIL_FOR_TESTING_1.4 1.7
 _ZN3mir26DefaultServerConfiguration9the_sceneEv@MIR_SERVER_DETAIL_FOR_TESTING_1.4 1.7
 _ZN3mir26DefaultServerConfiguration9the_shellEv@MIR_SERVER_DETAIL_FOR_TESTING_1.4 1.7
 _ZN3mir26DefaultServerConfigurationC1ERKSt10shared_ptrINS_7options13ConfigurationEE@MIR_SERVER_DETAIL_FOR_TESTING_1.4 1.7
 _ZN3mir26DefaultServerConfigurationC1EiPPKc@MIR_SERVER_DETAIL_FOR_TESTING_1.4 1.7
 _ZN3mir26DefaultServerConfigurationC2ERKSt10shared_ptrINS_7options13ConfigurationEE@MIR_SERVER_DETAIL_FOR_TESTING_1.4 1.7
 _ZN3mir26DefaultServerConfigurationC2EiPPKc@MIR_SERVER_DETAIL_FOR_TESTING_1.4 1.7
 _ZN3mir27clear_termination_exceptionEv@MIR_SERVER_1.6.0 1.7
 _ZN3mir31check_for_termination_exceptionEv@MIR_SERVER_1.6.0 1.7
 _ZN3mir32terminate_with_current_exceptionEv@MIR_SERVER_1.6.0 1.7
 (arch=mips64el ppc64 s390x)_ZN3mir5scene19NullSessionListenerD0Ev@MIR_SERVER_1.6.0 1.8.0+dfsg1
 (arch=mips64el ppc64 s390x)_ZN3mir5scene19NullSessionListenerD1Ev@MIR_SERVER_1.6.0 1.8.0+dfsg1
 (arch=mips64el ppc64 s390x)_ZN3mir5scene19NullSessionListenerD2Ev@MIR_SERVER_1.6.0 1.8.0+dfsg1
 _ZN3mir5scene19NullSurfaceObserver12alpha_set_toEPKNS0_7SurfaceEf@MIR_SERVER_1.6.0 1.7
 _ZN3mir5scene19NullSurfaceObserver12frame_postedEPKNS0_7SurfaceEiRKNS_8geometry4SizeE@MIR_SERVER_1.6.0 1.7
 _ZN3mir5scene19NullSurfaceObserver13hidden_set_toEPKNS0_7SurfaceEb@MIR_SERVER_1.6.0 1.7
 _ZN3mir5scene19NullSurfaceObserver14attrib_changedEPKNS0_7SurfaceE15MirWindowAttribi@MIR_SERVER_1.6.0 1.7
 _ZN3mir5scene19NullSurfaceObserver14input_consumedEPKNS0_7SurfaceEPK8MirEvent@MIR_SERVER_1.6.0 1.7
 (subst)_ZN3mir5scene19NullSurfaceObserver14keymap_changedEPKNS0_7SurfaceE{int64_t}RKNSt7__cxx1112basic_stringIcSt11char_traitsIcESaIcEEESC_SC_SC_@MIR_SERVER_1.6.0 1.7
 _ZN3mir5scene19NullSurfaceObserver15placed_relativeEPKNS0_7SurfaceERKNS_8geometry9RectangleE@MIR_SERVER_1.6.0 1.7
 _ZN3mir5scene19NullSurfaceObserver17window_resized_toEPKNS0_7SurfaceERKNS_8geometry4SizeE@MIR_SERVER_1.6.0 1.7
 _ZN3mir5scene19NullSurfaceObserver18content_resized_toEPKNS0_7SurfaceERKNS_8geometry4SizeE@MIR_SERVER_1.6.0 1.7
 _ZN3mir5scene19NullSurfaceObserver18depth_layer_set_toEPKNS0_7SurfaceE13MirDepthLayer@MIR_SERVER_1.6.0 1.7
 _ZN3mir5scene19NullSurfaceObserver18orientation_set_toEPKNS0_7SurfaceE14MirOrientation@MIR_SERVER_1.6.0 1.7
 _ZN3mir5scene19NullSurfaceObserver19cursor_image_set_toEPKNS0_7SurfaceERKNS_8graphics11CursorImageE@MIR_SERVER_1.6.0 1.7
 _ZN3mir5scene19NullSurfaceObserver19start_drag_and_dropEPKNS0_7SurfaceERKSt6vectorIhSaIhEE@MIR_SERVER_1.6.0 1.7
 _ZN3mir5scene19NullSurfaceObserver20cursor_image_removedEPKNS0_7SurfaceE@MIR_SERVER_1.6.0 1.7
 _ZN3mir5scene19NullSurfaceObserver21application_id_set_toEPKNS0_7SurfaceERKNSt7__cxx1112basic_stringIcSt11char_traitsIcESaIcEEE@MIR_SERVER_1.6.0 1.7
 _ZN3mir5scene19NullSurfaceObserver21reception_mode_set_toEPKNS0_7SurfaceENS_5input18InputReceptionModeE@MIR_SERVER_1.6.0 1.7
 _ZN3mir5scene19NullSurfaceObserver21transformation_set_toEPKNS0_7SurfaceERKN3glm3matILi4ELi4EfLNS5_9qualifierE0EEE@MIR_SERVER_1.6.0 1.7
 _ZN3mir5scene19NullSurfaceObserver30client_surface_close_requestedEPKNS0_7SurfaceE@MIR_SERVER_1.6.0 1.7
 _ZN3mir5scene19NullSurfaceObserver7renamedEPKNS0_7SurfaceEPKc@MIR_SERVER_1.6.0 1.7
 _ZN3mir5scene19NullSurfaceObserver8moved_toEPKNS0_7SurfaceERKNS_8geometry5PointE@MIR_SERVER_1.6.0 1.7
 (arch=mips64el ppc64 s390x)_ZN3mir5scene19NullSurfaceObserverD0Ev@MIR_SERVER_1.6.0 1.8.0+dfsg1
 (arch=mips64el ppc64 s390x)_ZN3mir5scene19NullSurfaceObserverD1Ev@MIR_SERVER_1.6.0 1.8.0+dfsg1
 (arch=mips64el ppc64 s390x)_ZN3mir5scene19NullSurfaceObserverD2Ev@MIR_SERVER_1.6.0 1.8.0+dfsg1
 _ZN3mir5scene25SurfaceCreationParameters10with_stateE14MirWindowState@MIR_SERVER_1.6.0 1.7
 _ZN3mir5scene25SurfaceCreationParameters11of_positionERKNS_8geometry5PointE@MIR_SERVER_1.6.0 1.7
 _ZN3mir5scene25SurfaceCreationParameters13with_aux_rectERKNS_8geometry9RectangleE@MIR_SERVER_1.6.0 1.7
 _ZN3mir5scene25SurfaceCreationParameters14with_output_idERKNS_10IntWrapperINS_8graphics6detail23GraphicsConfOutputIdTagEiEE@MIR_SERVER_1.6.0 1.7
 _ZN3mir5scene25SurfaceCreationParameters14with_parent_idERKNS_10IntWrapperINS_8frontend6detail20SessionsSurfaceIdTagEiEE@MIR_SERVER_1.6.0 1.7
 _ZN3mir5scene25SurfaceCreationParameters15of_buffer_usageENS_8graphics11BufferUsageE@MIR_SERVER_1.6.0 1.7
 _ZN3mir5scene25SurfaceCreationParameters15of_pixel_formatE14MirPixelFormat@MIR_SERVER_1.6.0 1.7
 _ZN3mir5scene25SurfaceCreationParameters15with_input_modeERKNS_5input18InputReceptionModeE@MIR_SERVER_1.6.0 1.7
 _ZN3mir5scene25SurfaceCreationParameters18with_buffer_streamERKSt10shared_ptrINS_10compositor12BufferStreamEE@MIR_SERVER_1.6.0 1.7
 _ZN3mir5scene25SurfaceCreationParameters20with_edge_attachmentE17MirEdgeAttachment@MIR_SERVER_1.6.0 1.7
 _ZN3mir5scene25SurfaceCreationParameters26with_preferred_orientationE18MirOrientationMode@MIR_SERVER_1.6.0 1.7
 _ZN3mir5scene25SurfaceCreationParameters7of_nameERKNSt7__cxx1112basic_stringIcSt11char_traitsIcESaIcEEE@MIR_SERVER_1.6.0 1.7
 _ZN3mir5scene25SurfaceCreationParameters7of_sizeENS_8geometry4SizeE@MIR_SERVER_1.6.0 1.7
 _ZN3mir5scene25SurfaceCreationParameters7of_sizeEii@MIR_SERVER_1.6.0 1.7
 _ZN3mir5scene25SurfaceCreationParameters7of_typeE13MirWindowType@MIR_SERVER_1.6.0 1.7
 _ZN3mir5scene25SurfaceCreationParametersC1Ev@MIR_SERVER_1.6.0 1.7
 _ZN3mir5scene25SurfaceCreationParametersC2Ev@MIR_SERVER_1.6.0 1.7
 _ZN3mir5scene39ApplicationNotRespondingDetectorWrapper13pong_receivedEPKNS0_7SessionE@MIR_SERVER_1.6.0 1.7
 _ZN3mir5scene39ApplicationNotRespondingDetectorWrapper16register_sessionEPKNS0_7SessionERKSt8functionIFvvEE@MIR_SERVER_1.6.0 1.7
 _ZN3mir5scene39ApplicationNotRespondingDetectorWrapper17register_observerERKSt10shared_ptrINS0_32ApplicationNotRespondingDetector8ObserverEE@MIR_SERVER_1.6.0 1.7
 _ZN3mir5scene39ApplicationNotRespondingDetectorWrapper18unregister_sessionEPKNS0_7SessionE@MIR_SERVER_1.6.0 1.7
 _ZN3mir5scene39ApplicationNotRespondingDetectorWrapper19unregister_observerERKSt10shared_ptrINS0_32ApplicationNotRespondingDetector8ObserverEE@MIR_SERVER_1.6.0 1.7
 _ZN3mir5scene39ApplicationNotRespondingDetectorWrapperC1ERKSt10shared_ptrINS0_32ApplicationNotRespondingDetectorEE@MIR_SERVER_1.6.0 1.7
 _ZN3mir5scene39ApplicationNotRespondingDetectorWrapperC2ERKSt10shared_ptrINS0_32ApplicationNotRespondingDetectorEE@MIR_SERVER_1.6.0 1.7
 _ZN3mir5scene39ApplicationNotRespondingDetectorWrapperD0Ev@MIR_SERVER_1.6.0 1.7
 _ZN3mir5scene39ApplicationNotRespondingDetectorWrapperD1Ev@MIR_SERVER_1.6.0 1.7
 _ZN3mir5scene39ApplicationNotRespondingDetectorWrapperD2Ev@MIR_SERVER_1.6.0 1.7
 _ZN3mir5scene9a_surfaceEv@MIR_SERVER_1.6.0 1.7
 _ZN3mir5sceneeqERKNS0_25SurfaceCreationParametersES3_@MIR_SERVER_1.6.0 1.7
 _ZN3mir5sceneneERKNS0_25SurfaceCreationParametersES3_@MIR_SERVER_1.6.0 1.7
 _ZN3mir5shell11SurfaceInfo14needs_titlebarE13MirWindowType@MIR_SERVER_1.6.0 1.7
 _ZN3mir5shell11SurfaceInfoC1ERKSt10shared_ptrINS_5scene7SessionEERKS2_INS3_7SurfaceEERKNS3_25SurfaceCreationParametersE@MIR_SERVER_1.6.0 1.7
 _ZN3mir5shell11SurfaceInfoC2ERKSt10shared_ptrINS_5scene7SessionEERKS2_INS3_7SurfaceEERKNS3_25SurfaceCreationParametersE@MIR_SERVER_1.6.0 1.7
 _ZN3mir5shell12ShellWrapper11add_displayERKNS_8geometry9RectangleE@MIR_SERVER_1.6.0 1.7
 _ZN3mir5shell12ShellWrapper12open_sessionEiRKNSt7__cxx1112basic_stringIcSt11char_traitsIcESaIcEEERKSt10shared_ptrINS_8frontend9EventSinkEE@MIR_SERVER_1.6.0 1.7
 (subst)_ZN3mir5shell12ShellWrapper12request_moveERKSt10shared_ptrINS_5scene7SessionEERKS2_INS3_7SurfaceEE{uint64_t}@MIR_SERVER_1.6.0 1.7
 _ZN3mir5shell12ShellWrapper12set_focus_toERKSt10shared_ptrINS_5scene7SessionEERKS2_INS3_7SurfaceEE@MIR_SERVER_1.6.0 1.7
 _ZN3mir5shell12ShellWrapper13close_sessionERKSt10shared_ptrINS_5scene7SessionEE@MIR_SERVER_1.6.0 1.7
 (subst)_ZN3mir5shell12ShellWrapper13raise_surfaceERKSt10shared_ptrINS_5scene7SessionEERKS2_INS3_7SurfaceEE{uint64_t}@MIR_SERVER_1.6.0 1.7
 _ZN3mir5shell12ShellWrapper14create_surfaceERKSt10shared_ptrINS_5scene7SessionEERKNS3_25SurfaceCreationParametersERKS2_INS3_15SurfaceObserverEE@MIR_SERVER_1.6.0 1.7
 _ZN3mir5shell12ShellWrapper14modify_surfaceERKSt10shared_ptrINS_5scene7SessionEERKS2_INS3_7SurfaceEERKNS0_20SurfaceSpecificationE@MIR_SERVER_1.6.0 1.7
 _ZN3mir5shell12ShellWrapper14remove_displayERKNS_8geometry9RectangleE@MIR_SERVER_1.6.0 1.7
 (subst)_ZN3mir5shell12ShellWrapper14request_resizeERKSt10shared_ptrINS_5scene7SessionEERKS2_INS3_7SurfaceEE{uint64_t}13MirResizeEdge@MIR_SERVER_1.6.0 1.7
 _ZN3mir5shell12ShellWrapper15destroy_surfaceERKSt10shared_ptrINS_5scene7SessionEERKS2_INS3_7SurfaceEE@MIR_SERVER_1.6.0 1.7
 _ZN3mir5shell12ShellWrapper18focus_next_sessionEv@MIR_SERVER_1.6.0 1.7
 _ZN3mir5shell12ShellWrapper18focus_prev_sessionEv@MIR_SERVER_1.6.0 1.7
 _ZN3mir5shell12ShellWrapper19stop_prompt_sessionERKSt10shared_ptrINS_5scene13PromptSessionEE@MIR_SERVER_1.6.0 1.7
 _ZN3mir5shell12ShellWrapper21get_surface_attributeERKSt10shared_ptrINS_5scene7SurfaceEE15MirWindowAttrib@MIR_SERVER_1.6.0 1.7
 (subst)_ZN3mir5shell12ShellWrapper21request_drag_and_dropERKSt10shared_ptrINS_5scene7SessionEERKS2_INS3_7SurfaceEE{uint64_t}@MIR_SERVER_1.6.0 1.7
 _ZN3mir5shell12ShellWrapper21set_surface_attributeERKSt10shared_ptrINS_5scene7SessionEERKS2_INS3_7SurfaceEE15MirWindowAttribi@MIR_SERVER_1.6.0 1.7
 _ZN3mir5shell12ShellWrapper23add_prompt_provider_forERKSt10shared_ptrINS_5scene13PromptSessionEERKS2_INS3_7SessionEE@MIR_SERVER_1.6.0 1.7
 _ZN3mir5shell12ShellWrapper24set_drag_and_drop_handleERKSt6vectorIhSaIhEE@MIR_SERVER_1.6.0 1.7
 _ZN3mir5shell12ShellWrapper24start_prompt_session_forERKSt10shared_ptrINS_5scene7SessionEERKNS3_31PromptSessionCreationParametersE@MIR_SERVER_1.6.0 1.7
 _ZN3mir5shell12ShellWrapper26clear_drag_and_drop_handleEv@MIR_SERVER_1.6.0 1.7
 _ZN3mir5shell12ShellWrapper5raiseERKSt3setISt8weak_ptrINS_5scene7SurfaceEESt10owner_lessIS6_ESaIS6_EE@MIR_SERVER_1.6.0 1.7
 _ZN3mir5shell12ShellWrapper6handleERK8MirEvent@MIR_SERVER_1.6.0 1.7
 _ZN3mir5shell12ShellWrapperC1ERKSt10shared_ptrINS0_5ShellEE@MIR_SERVER_1.6.0 1.7
 _ZN3mir5shell12ShellWrapperC2ERKSt10shared_ptrINS0_5ShellEE@MIR_SERVER_1.6.0 1.7
 _ZN3mir5shell13AbstractShell11add_displayERKNS_8geometry9RectangleE@MIR_SERVER_1.6.0 1.7
 _ZN3mir5shell13AbstractShell12open_sessionEiRKNSt7__cxx1112basic_stringIcSt11char_traitsIcESaIcEEERKSt10shared_ptrINS_8frontend9EventSinkEE@MIR_SERVER_1.6.0 1.7
 (subst)_ZN3mir5shell13AbstractShell12request_moveERKSt10shared_ptrINS_5scene7SessionEERKS2_INS3_7SurfaceEE{uint64_t}@MIR_SERVER_1.6.0 1.7
 _ZN3mir5shell13AbstractShell12set_focus_toERKSt10shared_ptrINS_5scene7SessionEERKS2_INS3_7SurfaceEE@MIR_SERVER_1.6.0 1.7
 _ZN3mir5shell13AbstractShell13close_sessionERKSt10shared_ptrINS_5scene7SessionEE@MIR_SERVER_1.6.0 1.7
 (subst)_ZN3mir5shell13AbstractShell13raise_surfaceERKSt10shared_ptrINS_5scene7SessionEERKS2_INS3_7SurfaceEE{uint64_t}@MIR_SERVER_1.6.0 1.7
 _ZN3mir5shell13AbstractShell14create_surfaceERKSt10shared_ptrINS_5scene7SessionEERKNS3_25SurfaceCreationParametersERKS2_INS3_15SurfaceObserverEE@MIR_SERVER_1.6.0 1.7
 _ZN3mir5shell13AbstractShell14modify_surfaceERKSt10shared_ptrINS_5scene7SessionEERKS2_INS3_7SurfaceEERKNS0_20SurfaceSpecificationE@MIR_SERVER_1.6.0 1.7
 _ZN3mir5shell13AbstractShell14remove_displayERKNS_8geometry9RectangleE@MIR_SERVER_1.6.0 1.7
 _ZN3mir5shell13AbstractShell15destroy_surfaceERKSt10shared_ptrINS_5scene7SessionEERKS2_INS3_7SurfaceEE@MIR_SERVER_1.6.0 1.7
 _ZN3mir5shell13AbstractShell18focus_next_sessionEv@MIR_SERVER_1.6.0 1.7
 _ZN3mir5shell13AbstractShell19stop_prompt_sessionERKSt10shared_ptrINS_5scene13PromptSessionEE@MIR_SERVER_1.6.0 1.7
 _ZN3mir5shell13AbstractShell21get_surface_attributeERKSt10shared_ptrINS_5scene7SurfaceEE15MirWindowAttrib@MIR_SERVER_1.6.0 1.7
 (subst)_ZN3mir5shell13AbstractShell21request_drag_and_dropERKSt10shared_ptrINS_5scene7SessionEERKS2_INS3_7SurfaceEE{uint64_t}@MIR_SERVER_1.6.0 1.7
 _ZN3mir5shell13AbstractShell21set_surface_attributeERKSt10shared_ptrINS_5scene7SessionEERKS2_INS3_7SurfaceEE15MirWindowAttribi@MIR_SERVER_1.6.0 1.7
 _ZN3mir5shell13AbstractShell23add_prompt_provider_forERKSt10shared_ptrINS_5scene13PromptSessionEERKS2_INS3_7SessionEE@MIR_SERVER_1.6.0 1.7
 _ZN3mir5shell13AbstractShell24set_drag_and_drop_handleERKSt6vectorIhSaIhEE@MIR_SERVER_1.6.0 1.7
 _ZN3mir5shell13AbstractShell24start_prompt_session_forERKSt10shared_ptrINS_5scene7SessionEERKNS3_31PromptSessionCreationParametersE@MIR_SERVER_1.6.0 1.7
 _ZN3mir5shell13AbstractShell26clear_drag_and_drop_handleEv@MIR_SERVER_1.6.0 1.7
 _ZN3mir5shell13AbstractShell38update_focused_surface_confined_regionEv@MIR_SERVER_1.6.0 1.7
 _ZN3mir5shell13AbstractShell5raiseERKSt3setISt8weak_ptrINS_5scene7SurfaceEESt10owner_lessIS6_ESaIS6_EE@MIR_SERVER_1.6.0 1.7
 _ZN3mir5shell13AbstractShell6handleERK8MirEvent@MIR_SERVER_1.6.0 1.7
 (optional=templinst)_ZN3mir5shell13AbstractShellC1ERKSt10shared_ptrINS0_13InputTargeterEERKS2_INS0_12SurfaceStackEERKS2_INS_5scene18SessionCoordinatorEERKS2_INSB_20PromptSessionManagerEERKS2_INS0_11ShellReportEERKSt8functionIFS2_INS0_13WindowManagerEEPNS0_15FocusControllerEEERKS2_INS_5input4SeatEERKS2_INS0_10decoration7ManagerEE@MIR_SERVER_1.6.0 1.7
 (optional=templinst)_ZN3mir5shell13AbstractShellC2ERKSt10shared_ptrINS0_13InputTargeterEERKS2_INS0_12SurfaceStackEERKS2_INS_5scene18SessionCoordinatorEERKS2_INSB_20PromptSessionManagerEERKS2_INS0_11ShellReportEERKSt8functionIFS2_INS0_13WindowManagerEEPNS0_15FocusControllerEEERKS2_INS_5input4SeatEERKS2_INS0_10decoration7ManagerEE@MIR_SERVER_1.6.0 1.7
 _ZN3mir5shell13AbstractShellD0Ev@MIR_SERVER_1.6.0 1.7
 _ZN3mir5shell13AbstractShellD1Ev@MIR_SERVER_1.6.0 1.7
 _ZN3mir5shell13AbstractShellD2Ev@MIR_SERVER_1.6.0 1.7
 _ZN3mir5shell19SurfaceStackWrapper11add_surfaceERKSt10shared_ptrINS_5scene7SurfaceEENS_5input18InputReceptionModeE@MIR_SERVER_1.6.0 1.7
 _ZN3mir5shell19SurfaceStackWrapper14remove_surfaceERKSt8weak_ptrINS_5scene7SurfaceEE@MIR_SERVER_1.6.0 1.7
 _ZN3mir5shell19SurfaceStackWrapper5raiseERKSt3setISt8weak_ptrINS_5scene7SurfaceEESt10owner_lessIS6_ESaIS6_EE@MIR_SERVER_1.6.0 1.7
 _ZN3mir5shell19SurfaceStackWrapper5raiseERKSt8weak_ptrINS_5scene7SurfaceEE@MIR_SERVER_1.6.0 1.7
 _ZN3mir5shell19SurfaceStackWrapperC1ERKSt10shared_ptrINS0_12SurfaceStackEE@MIR_SERVER_1.6.0 1.7
 _ZN3mir5shell19SurfaceStackWrapperC2ERKSt10shared_ptrINS0_12SurfaceStackEE@MIR_SERVER_1.6.0 1.7
 _ZN3mir5shell20SurfaceReadyObserver12frame_postedEPKNS_5scene7SurfaceEiRKNS_8geometry4SizeE@MIR_SERVER_1.6.0 1.7
 _ZN3mir5shell20SurfaceReadyObserverC1ERKSt8functionIFvRKSt10shared_ptrINS_5scene7SessionEERKS3_INS4_7SurfaceEEEES8_SC_@MIR_SERVER_1.6.0 1.7
 _ZN3mir5shell20SurfaceReadyObserverC2ERKSt8functionIFvRKSt10shared_ptrINS_5scene7SessionEERKS3_INS4_7SurfaceEEEES8_SC_@MIR_SERVER_1.6.0 1.7
 _ZN3mir5shell20SurfaceReadyObserverD0Ev@MIR_SERVER_1.6.0 1.7
 _ZN3mir5shell20SurfaceReadyObserverD1Ev@MIR_SERVER_1.6.0 1.7
 _ZN3mir5shell20SurfaceReadyObserverD2Ev@MIR_SERVER_1.6.0 1.7
 _ZN3mir5shell22PersistentSurfaceStore2IdC1ERKNSt7__cxx1112basic_stringIcSt11char_traitsIcESaIcEEE@MIR_SERVER_1.6.0 1.7
 _ZN3mir5shell22PersistentSurfaceStore2IdC1ERKS2_@MIR_SERVER_1.6.0 1.7
 _ZN3mir5shell22PersistentSurfaceStore2IdC1Ev@MIR_SERVER_1.6.0 1.7
 _ZN3mir5shell22PersistentSurfaceStore2IdC2ERKNSt7__cxx1112basic_stringIcSt11char_traitsIcESaIcEEE@MIR_SERVER_1.6.0 1.8.0+dfsg1
 _ZN3mir5shell22PersistentSurfaceStore2IdC2ERKS2_@MIR_SERVER_1.6.0 1.8.0+dfsg1
 _ZN3mir5shell22PersistentSurfaceStore2IdC2Ev@MIR_SERVER_1.6.0 1.8.0+dfsg1
 _ZN3mir5shell22PersistentSurfaceStore2IdaSERKS2_@MIR_SERVER_1.6.0 1.7
 _ZN3mir5shell29SystemCompositorWindowManager11add_displayERKNS_8geometry9RectangleE@MIR_SERVER_1.6.0 1.7
 _ZN3mir5shell29SystemCompositorWindowManager11add_sessionERKSt10shared_ptrINS_5scene7SessionEE@MIR_SERVER_1.6.0 1.7
 (optional=templinst)_ZN3mir5shell29SystemCompositorWindowManager11add_surfaceERKSt10shared_ptrINS_5scene7SessionEERKNS3_25SurfaceCreationParametersERKSt8functionIFS2_INS3_7SurfaceEES7_SA_EE@MIR_SERVER_1.6.0 1.7
 _ZN3mir5shell29SystemCompositorWindowManager14modify_surfaceERKSt10shared_ptrINS_5scene7SessionEERKS2_INS3_7SurfaceEERKNS0_20SurfaceSpecificationE@MIR_SERVER_1.6.0 1.7
 _ZN3mir5shell29SystemCompositorWindowManager14remove_displayERKNS_8geometry9RectangleE@MIR_SERVER_1.6.0 1.7
 _ZN3mir5shell29SystemCompositorWindowManager14remove_sessionERKSt10shared_ptrINS_5scene7SessionEE@MIR_SERVER_1.6.0 1.7
 _ZN3mir5shell29SystemCompositorWindowManager14remove_surfaceERKSt10shared_ptrINS_5scene7SessionEERKSt8weak_ptrINS3_7SurfaceEE@MIR_SERVER_1.6.0 1.7
 _ZN3mir5shell29SystemCompositorWindowManager18handle_touch_eventEPK13MirTouchEvent@MIR_SERVER_1.6.0 1.7
 (subst)_ZN3mir5shell29SystemCompositorWindowManager19handle_request_moveERKSt10shared_ptrINS_5scene7SessionEERKS2_INS3_7SurfaceEE{uint64_t}@MIR_SERVER_1.6.0 1.7
 _ZN3mir5shell29SystemCompositorWindowManager20handle_pointer_eventEPK15MirPointerEvent@MIR_SERVER_1.6.0 1.7
 (subst)_ZN3mir5shell29SystemCompositorWindowManager20handle_raise_surfaceERKSt10shared_ptrINS_5scene7SessionEERKS2_INS3_7SurfaceEE{uint64_t}@MIR_SERVER_1.6.0 1.7
 _ZN3mir5shell29SystemCompositorWindowManager21handle_keyboard_eventEPK16MirKeyboardEvent@MIR_SERVER_1.6.0 1.7
 (subst)_ZN3mir5shell29SystemCompositorWindowManager21handle_request_resizeERKSt10shared_ptrINS_5scene7SessionEERKS2_INS3_7SurfaceEE{uint64_t}13MirResizeEdge@MIR_SERVER_1.6.0 1.7
 _ZN3mir5shell29SystemCompositorWindowManager21set_surface_attributeERKSt10shared_ptrINS_5scene7SessionEERKS2_INS3_7SurfaceEE15MirWindowAttribi@MIR_SERVER_1.6.0 1.7
 (subst)_ZN3mir5shell29SystemCompositorWindowManager28handle_request_drag_and_dropERKSt10shared_ptrINS_5scene7SessionEERKS2_INS3_7SurfaceEE{uint64_t}@MIR_SERVER_1.6.0 1.7
 _ZN3mir5shell29SystemCompositorWindowManagerC1EPNS0_15FocusControllerERKSt10shared_ptrINS0_13DisplayLayoutEERKS4_INS_5scene18SessionCoordinatorEE@MIR_SERVER_1.6.0 1.7
 _ZN3mir5shell29SystemCompositorWindowManagerC2EPNS0_15FocusControllerERKSt10shared_ptrINS0_13DisplayLayoutEERKS4_INS_5scene18SessionCoordinatorEE@MIR_SERVER_1.6.0 1.7
 (optional=templinst)_ZN3mir6Server10wrap_shellERKSt8functionIFSt10shared_ptrINS_5shell5ShellEERKS5_EE@MIR_SERVER_1.6.0 1.7
 (optional=templinst)_ZN3mir6Server11wrap_cursorERKSt8functionIFSt10shared_ptrINS_8graphics6CursorEERKS5_EE@MIR_SERVER_1.6.0 1.7
 _ZN3mir6Server14apply_settingsEv@MIR_SERVER_1.6.0 1.7
 _ZN3mir6Server14set_terminatorERKSt8functionIFviEE@MIR_SERVER_1.6.0 1.7
 _ZN3mir6Server15exited_normallyEv@MIR_SERVER_1.6.0 1.7
 _ZN3mir6Server16set_command_lineEiPPKc@MIR_SERVER_1.6.0 1.7
 _ZN3mir6Server17add_init_callbackERKSt8functionIFvvEE@MIR_SERVER_1.6.0 1.7
 _ZN3mir6Server17add_stop_callbackERKSt8functionIFvvEE@MIR_SERVER_1.6.0 1.7
 _ZN3mir6Server18open_client_socketERKSt8functionIFvRKSt10shared_ptrINS_5scene7SessionEEEE@MIR_SERVER_1.6.0 1.7
 _ZN3mir6Server18open_client_socketEv@MIR_SERVER_1.6.0 1.7
 _ZN3mir6Server18open_prompt_socketEv@MIR_SERVER_1.6.0 1.7
 (optional=templinst)_ZN3mir6Server18override_the_shellERKSt8functionIFSt10shared_ptrINS_5shell5ShellEEvEE@MIR_SERVER_1.6.0 1.7
 (optional=templinst)_ZN3mir6Server18wrap_surface_stackERKSt8functionIFSt10shared_ptrINS_5shell12SurfaceStackEERKS5_EE@MIR_SERVER_1.6.0 1.7
 (arch=mips64el ppc64 s390x)_ZN3mir6Server19ServerConfiguration10the_loggerEv@MIR_SERVER_1.6.0 1.8.0+dfsg1
 (arch=mips64el ppc64 s390x)_ZN3mir6Server19ServerConfiguration10wrap_shellERKSt10shared_ptrINS_5shell5ShellEE@MIR_SERVER_1.6.0 1.8.0+dfsg1
 (arch=mips64el ppc64 s390x)_ZN3mir6Server19ServerConfiguration11wrap_cursorERKSt10shared_ptrINS_8graphics6CursorEE@MIR_SERVER_1.6.0 1.8.0+dfsg1
 (arch=mips64el ppc64 s390x)_ZN3mir6Server19ServerConfiguration13the_gl_configEv@MIR_SERVER_1.6.0 1.8.0+dfsg1
 (arch=mips64el ppc64 s390x)_ZN3mir6Server19ServerConfiguration14the_compositorEv@MIR_SERVER_1.6.0 1.8.0+dfsg1
 (arch=mips64el ppc64 s390x)_ZN3mir6Server19ServerConfiguration17the_cursor_imagesEv@MIR_SERVER_1.6.0 1.8.0+dfsg1
 (arch=mips64el ppc64 s390x)_ZN3mir6Server19ServerConfiguration17the_stop_callbackEv@MIR_SERVER_1.6.0 1.8.0+dfsg1
 (arch=mips64el ppc64 s390x)_ZN3mir6Server19ServerConfiguration18the_input_targeterEv@MIR_SERVER_1.6.0 1.8.0+dfsg1
 (arch=mips64el ppc64 s390x)_ZN3mir6Server19ServerConfiguration18wrap_surface_stackERKSt10shared_ptrINS_5shell12SurfaceStackEE@MIR_SERVER_1.6.0 1.8.0+dfsg1
 (arch=mips64el ppc64 s390x)_ZN3mir6Server19ServerConfiguration20the_cookie_authorityEv@MIR_SERVER_1.6.0 1.8.0+dfsg1
 (arch=mips64el ppc64 s390x)_ZN3mir6Server19ServerConfiguration20the_input_dispatcherEv@MIR_SERVER_1.6.0 1.8.0+dfsg1
 (arch=mips64el ppc64 s390x)_ZN3mir6Server19ServerConfiguration20the_session_listenerEv@MIR_SERVER_1.6.0 1.8.0+dfsg1
 (arch=mips64el ppc64 s390x)_ZN3mir6Server19ServerConfiguration20wrap_cursor_listenerERKSt10shared_ptrINS_5input14CursorListenerEE@MIR_SERVER_1.6.0 1.8.0+dfsg1
 (arch=mips64el ppc64 s390x)_ZN3mir6Server19ServerConfiguration22the_session_authorizerEv@MIR_SERVER_1.6.0 1.8.0+dfsg1
 (arch=mips64el ppc64 s390x)_ZN3mir6Server19ServerConfiguration25the_coordinate_translatorEv@MIR_SERVER_1.6.0 1.8.0+dfsg1
 (arch=mips64el ppc64 s390x)_ZN3mir6Server19ServerConfiguration26the_prompt_session_managerEv@MIR_SERVER_1.6.0 1.8.0+dfsg1
 (arch=mips64el ppc64 s390x)_ZN3mir6Server19ServerConfiguration26the_server_status_listenerEv@MIR_SERVER_1.6.0 1.8.0+dfsg1
 (arch=mips64el ppc64 s390x)_ZN3mir6Server19ServerConfiguration26the_window_manager_builderEv@MIR_SERVER_1.6.0 1.8.0+dfsg1
 (arch=mips64el ppc64 s390x)_ZN3mir6Server19ServerConfiguration27the_prompt_session_listenerEv@MIR_SERVER_1.6.0 1.8.0+dfsg1
 (arch=mips64el ppc64 s390x)_ZN3mir6Server19ServerConfiguration28the_persistent_surface_storeEv@MIR_SERVER_1.6.0 1.8.0+dfsg1
 (arch=mips64el ppc64 s390x)_ZN3mir6Server19ServerConfiguration33the_host_lifecycle_event_listenerEv@MIR_SERVER_1.6.0 1.8.0+dfsg1
 (arch=mips64el ppc64 s390x)_ZN3mir6Server19ServerConfiguration33wrap_display_configuration_policyERKSt10shared_ptrINS_8graphics26DisplayConfigurationPolicyEE@MIR_SERVER_1.6.0 1.8.0+dfsg1
 (arch=mips64el ppc64 s390x)_ZN3mir6Server19ServerConfiguration37the_display_buffer_compositor_factoryEv@MIR_SERVER_1.6.0 1.8.0+dfsg1
 (arch=mips64el ppc64 s390x)_ZN3mir6Server19ServerConfiguration38wrap_display_buffer_compositor_factoryERKSt10shared_ptrINS_10compositor30DisplayBufferCompositorFactoryEE@MIR_SERVER_1.6.0 1.8.0+dfsg1
 (arch=mips64el ppc64 s390x)_ZN3mir6Server19ServerConfiguration39the_application_not_responding_detectorEv@MIR_SERVER_1.6.0 1.8.0+dfsg1
 (arch=mips64el ppc64 s390x)_ZN3mir6Server19ServerConfiguration40wrap_application_not_responding_detectorERKSt10shared_ptrINS_5scene32ApplicationNotRespondingDetectorEE@MIR_SERVER_1.6.0 1.8.0+dfsg1
 (arch=mips64el ppc64 s390x)_ZN3mir6Server19ServerConfiguration9the_shellEv@MIR_SERVER_1.6.0 1.8.0+dfsg1
 (arch=mips64el ppc64 s390x)_ZN3mir6Server19ServerConfigurationD0Ev@MIR_SERVER_1.6.0 1.8.0+dfsg1
 (arch=mips64el ppc64 s390x)_ZN3mir6Server19ServerConfigurationD1Ev@MIR_SERVER_1.6.0 1.8.0+dfsg1
 _ZN3mir6Server19open_client_waylandERKSt8functionIFvRKSt10shared_ptrINS_5scene7SessionEEEE@MIR_SERVER_1.6.0 1.7
 (optional=templinst)_ZN3mir6Server19override_the_loggerERKSt8functionIFSt10shared_ptrINS_7logging6LoggerEEvEE@MIR_SERVER_1.6.0 1.7
 _ZN3mir6Server19set_config_filenameERKNSt7__cxx1112basic_stringIcSt11char_traitsIcESaIcEEE@MIR_SERVER_1.6.0 1.7
 (optional=templinst)_ZN3mir6Server20wrap_cursor_listenerERKSt8functionIFSt10shared_ptrINS_5input14CursorListenerEERKS5_EE@MIR_SERVER_1.6.0 1.7
 _ZN3mir6Server21add_emergency_cleanupERKSt8functionIFvvEE@MIR_SERVER_1.6.0 1.7
 _ZN3mir6Server21add_pre_init_callbackERKSt8functionIFvvEE@MIR_SERVER_1.6.0 1.7
 (optional=templinst)_ZN3mir6Server21add_wayland_extensionERKNSt7__cxx1112basic_stringIcSt11char_traitsIcESaIcEEESt8functionIFSt10shared_ptrIvEP10wl_displayRKS9_IFvOS9_IFvvEEEEEE@MIR_SERVER_1.6.0 1.7
 _ZN3mir6Server21set_exception_handlerERKSt8functionIFvvEE@MIR_SERVER_1.6.0 1.7
 (optional=templinst)_ZN3mir6Server22override_the_gl_configERKSt8functionIFSt10shared_ptrINS_8graphics8GLConfigEEvEE@MIR_SERVER_1.6.0 1.7
 _ZN3mir6Server22run_on_wayland_displayERKSt8functionIFvP10wl_displayEE@MIR_SERVER_1.6.0 1.7
 (optional=templinst)_ZN3mir6Server23override_the_compositorERKSt8functionIFSt10shared_ptrINS_10compositor10CompositorEEvEE@MIR_SERVER_1.6.0 1.7
 _ZN3mir6Server24add_configuration_optionERKNSt7__cxx1112basic_stringIcSt11char_traitsIcESaIcEEES8_NS_10OptionTypeE@MIR_SERVER_1.6.0 1.7
 _ZN3mir6Server24add_configuration_optionERKNSt7__cxx1112basic_stringIcSt11char_traitsIcESaIcEEES8_PKc@MIR_SERVER_1.6.0 1.7
 _ZN3mir6Server24add_configuration_optionERKNSt7__cxx1112basic_stringIcSt11char_traitsIcESaIcEEES8_S8_@MIR_SERVER_1.6.0 1.7
 _ZN3mir6Server24add_configuration_optionERKNSt7__cxx1112basic_stringIcSt11char_traitsIcESaIcEEES8_b@MIR_SERVER_1.6.0 1.7
 _ZN3mir6Server24add_configuration_optionERKNSt7__cxx1112basic_stringIcSt11char_traitsIcESaIcEEES8_d@MIR_SERVER_1.6.0 1.7
 _ZN3mir6Server24add_configuration_optionERKNSt7__cxx1112basic_stringIcSt11char_traitsIcESaIcEEES8_i@MIR_SERVER_1.6.0 1.7
 _ZN3mir6Server24set_command_line_handlerERKSt8functionIFviPKPKcEE@MIR_SERVER_1.6.0 1.7
 _ZN3mir6Server26open_wayland_client_socketEv@MIR_SERVER_1.6.0 1.7
 (optional=templinst)_ZN3mir6Server26override_the_cursor_imagesERKSt8functionIFSt10shared_ptrINS_5input12CursorImagesEEvEE@MIR_SERVER_1.6.0 1.7
 (optional=templinst)_ZN3mir6Server27override_the_input_targeterERKSt8functionIFSt10shared_ptrINS_5shell13InputTargeterEEvEE@MIR_SERVER_1.6.0 1.7
 _ZN3mir6Server28set_wayland_extension_filterERKSt8functionIFbRKSt10shared_ptrINS_5scene7SessionEEPKcEE@MIR_SERVER_1.6.0 1.7
 (optional=templinst)_ZN3mir6Server29override_the_cookie_authorityERKSt8functionIFSt10shared_ptrINS_6cookie9AuthorityEEvEE@MIR_SERVER_1.6.0 1.7
 (optional=templinst)_ZN3mir6Server29override_the_input_dispatcherERKSt8functionIFSt10shared_ptrINS_5input15InputDispatcherEEvEE@MIR_SERVER_1.6.0 1.7
 (optional=templinst)_ZN3mir6Server29override_the_session_listenerERKSt8functionIFSt10shared_ptrINS_5scene15SessionListenerEEvEE@MIR_SERVER_1.6.0 1.7
 _ZN3mir6Server30set_enabled_wayland_extensionsERKSt6vectorINSt7__cxx1112basic_stringIcSt11char_traitsIcESaIcEEESaIS7_EE@MIR_SERVER_1.6.0 1.7
 (optional=templinst)_ZN3mir6Server31override_the_session_authorizerERKSt8functionIFSt10shared_ptrINS_8frontend17SessionAuthorizerEEvEE@MIR_SERVER_1.6.0 1.7
 (optional=templinst)_ZN3mir6Server33wrap_display_configuration_policyERKSt8functionIFSt10shared_ptrINS_8graphics26DisplayConfigurationPolicyEERKS5_EE@MIR_SERVER_1.6.0 1.7
 (optional=templinst)_ZN3mir6Server34override_the_coordinate_translatorERKSt8functionIFSt10shared_ptrINS_5scene20CoordinateTranslatorEEvEE@MIR_SERVER_1.6.0 1.7
 (optional=templinst)_ZN3mir6Server35override_the_prompt_session_managerERKSt8functionIFSt10shared_ptrINS_5scene20PromptSessionManagerEEvEE@MIR_SERVER_1.6.0 1.7
 (optional=templinst)_ZN3mir6Server35override_the_server_status_listenerERKSt8functionIFSt10shared_ptrINS_20ServerStatusListenerEEvEE@MIR_SERVER_1.6.0 1.7
 (optional=templinst)_ZN3mir6Server35override_the_window_manager_builderESt8functionIFSt10shared_ptrINS_5shell13WindowManagerEEPNS3_15FocusControllerEEE@MIR_SERVER_1.6.0 1.7
 (optional=templinst)_ZN3mir6Server36override_the_prompt_session_listenerERKSt8functionIFSt10shared_ptrINS_5scene21PromptSessionListenerEEvEE@MIR_SERVER_1.6.0 1.7
 (optional=templinst)_ZN3mir6Server37override_the_persistent_surface_storeERKSt8functionIFSt10shared_ptrINS_5shell22PersistentSurfaceStoreEEvEE@MIR_SERVER_1.6.0 1.7
 (optional=templinst)_ZN3mir6Server38wrap_display_buffer_compositor_factoryERKSt8functionIFSt10shared_ptrINS_10compositor30DisplayBufferCompositorFactoryEERKS5_EE@MIR_SERVER_1.6.0 1.7
 _ZN3mir6Server3runEv@MIR_SERVER_1.6.0 1.7
 (optional=templinst)_ZN3mir6Server40wrap_application_not_responding_detectorERKSt8functionIFSt10shared_ptrINS_5scene32ApplicationNotRespondingDetectorEERKS5_EE@MIR_SERVER_1.6.0 1.7
 (optional=templinst)_ZN3mir6Server42override_the_host_lifecycle_event_listenerERKSt8functionIFSt10shared_ptrINS_5shell26HostLifecycleEventListenerEEvEE@MIR_SERVER_1.6.0 1.7
 (optional=templinst)_ZN3mir6Server46override_the_display_buffer_compositor_factoryERKSt8functionIFSt10shared_ptrINS_10compositor30DisplayBufferCompositorFactoryEEvEE@MIR_SERVER_1.6.0 1.7
 (optional=templinst)_ZN3mir6Server48override_the_application_not_responding_detectorERKSt8functionIFSt10shared_ptrINS_5scene32ApplicationNotRespondingDetectorEEvEE@MIR_SERVER_1.6.0 1.7
 _ZN3mir6Server4stopEv@MIR_SERVER_1.6.0 1.7
 _ZN3mir6ServerC1Ev@MIR_SERVER_1.6.0 1.7
 _ZN3mir6ServerC2Ev@MIR_SERVER_1.6.0 1.7
 _ZN3mir7run_mirERNS_19ServerConfigurationESt8functionIFvRNS_13DisplayServerEEE@MIR_SERVER_DETAIL_FOR_TESTING_1.4 1.7
 (optional=templinst)_ZN3mir7run_mirERNS_19ServerConfigurationESt8functionIFvRNS_13DisplayServerEEERKS2_IFviEE@MIR_SERVER_DETAIL_FOR_TESTING_1.4 1.7
 _ZN3mir8frontend10get_windowEP11wl_resource@MIR_SERVER_1.6.0 1.7
 _ZN3mir8frontend11get_sessionEP11wl_resource@MIR_SERVER_1.6.0 1.7
 _ZN3mir8frontend11get_sessionEP9wl_client@MIR_SERVER_1.6.0 1.7
 _ZN3mir8frontend18SessionCredentialsC1Eijj@MIR_SERVER_1.6.0 1.7
 _ZN3mir8frontend18SessionCredentialsC2Eijj@MIR_SERVER_1.6.0 1.7
 _ZN3mir8frontend23get_standard_extensionsB5cxx11Ev@MIR_SERVER_1.6.0 1.7
 _ZN3mir8frontend24get_supported_extensionsB5cxx11Ev@MIR_SERVER_1.6.0 1.7
 _ZN3mir8graphics31CloneDisplayConfigurationPolicy8apply_toERNS0_20DisplayConfigurationE@MIR_SERVER_1.6.0 1.7
 _ZN3mir8graphics32SingleDisplayConfigurationPolicy8apply_toERNS0_20DisplayConfigurationE@MIR_SERVER_1.6.0 1.7
 _ZN3mir8graphics36SideBySideDisplayConfigurationPolicy8apply_toERNS0_20DisplayConfigurationE@MIR_SERVER_1.6.0 1.7
 _ZNK3mir26DefaultServerConfiguration11the_optionsEv@MIR_SERVER_DETAIL_FOR_TESTING_1.4 1.7
 _ZNK3mir26DefaultServerConfiguration15the_socket_fileB5cxx11Ev@MIR_SERVER_DETAIL_FOR_TESTING_1.4 1.7
 _ZNK3mir5shell11SurfaceInfo10is_visibleEv@MIR_SERVER_1.6.0 1.7
 _ZNK3mir5shell11SurfaceInfo12can_morph_toE13MirWindowType@MIR_SERVER_1.6.0 1.7
 _ZNK3mir5shell11SurfaceInfo13can_be_activeEv@MIR_SERVER_1.6.0 1.7
 _ZNK3mir5shell11SurfaceInfo16constrain_resizeERKSt10shared_ptrINS_5scene7SurfaceEERNS_8geometry5PointERNS8_4SizeEbbRKNS8_9RectangleE@MIR_SERVER_1.6.0 1.7
 _ZNK3mir5shell11SurfaceInfo16must_have_parentEv@MIR_SERVER_1.6.0 1.7
 _ZNK3mir5shell11SurfaceInfo20must_not_have_parentEv@MIR_SERVER_1.6.0 1.7
 _ZNK3mir5shell12ShellWrapper10surface_atENS_8geometry5PointE@MIR_SERVER_1.6.0 1.7
 _ZNK3mir5shell12ShellWrapper15focused_sessionEv@MIR_SERVER_1.6.0 1.7
 _ZNK3mir5shell12ShellWrapper15focused_surfaceEv@MIR_SERVER_1.6.0 1.7
 _ZNK3mir5shell13AbstractShell10surface_atENS_8geometry5PointE@MIR_SERVER_1.6.0 1.7
 _ZNK3mir5shell13AbstractShell15focused_sessionEv@MIR_SERVER_1.6.0 1.7
 _ZNK3mir5shell13AbstractShell15focused_surfaceEv@MIR_SERVER_1.6.0 1.7
 _ZNK3mir5shell19SurfaceStackWrapper10surface_atENS_8geometry5PointE@MIR_SERVER_1.6.0 1.7
 _ZNK3mir5shell20SurfaceSpecification8is_emptyEv@MIR_SERVER_1.6.0 1.7
 _ZNK3mir5shell22PersistentSurfaceStore2Id19serialize_to_stringB5cxx11Ev@MIR_SERVER_1.6.0 1.7
 _ZNK3mir5shell22PersistentSurfaceStore2IdeqERKS2_@MIR_SERVER_1.6.0 1.7
 _ZNK3mir5shell29SystemCompositorWindowManager16on_session_addedERKSt10shared_ptrINS_5scene7SessionEE@MIR_SERVER_1.6.0 1.7
 _ZNK3mir5shell29SystemCompositorWindowManager16on_session_readyERKSt10shared_ptrINS_5scene7SessionEE@MIR_SERVER_1.6.0 1.7
 _ZNK3mir5shell29SystemCompositorWindowManager18on_session_removedERKSt10shared_ptrINS_5scene7SessionEE@MIR_SERVER_1.6.0 1.7
 _ZNK3mir6Server10the_cursorEv@MIR_SERVER_1.6.0 1.7
 _ZNK3mir6Server10the_loggerEv@MIR_SERVER_1.6.0 1.7
 _ZNK3mir6Server11get_optionsEv@MIR_SERVER_1.6.0 1.7
 _ZNK3mir6Server11the_displayEv@MIR_SERVER_1.6.0 1.7
 _ZNK3mir6Server11x11_displayB5cxx11Ev@MIR_SERVER_1.7.1 1.7
 _ZNK3mir6Server13the_gl_configEv@MIR_SERVER_1.6.0 1.7
 _ZNK3mir6Server13the_main_loopEv@MIR_SERVER_1.6.0 1.7
 _ZNK3mir6Server14the_compositorEv@MIR_SERVER_1.6.0 1.7
 _ZNK3mir6Server15mir_socket_nameB5cxx11Ev@MIR_SERVER_1.6.0 1.7
 _ZNK3mir6Server15wayland_displayB5cxx11Ev@MIR_SERVER_1.6.0 1.7
 _ZNK3mir6Server17the_surface_stackEv@MIR_SERVER_1.6.0 1.7
 _ZNK3mir6Server18the_input_targeterEv@MIR_SERVER_1.6.0 1.7
 _ZNK3mir6Server19the_cursor_listenerEv@MIR_SERVER_1.6.0 1.7
 _ZNK3mir6Server19the_surface_factoryEv@MIR_SERVER_1.6.0 1.7
 _ZNK3mir6Server20the_focus_controllerEv@MIR_SERVER_1.6.0 1.7
 _ZNK3mir6Server20the_input_device_hubEv@MIR_SERVER_1.6.0 1.7
 _ZNK3mir6Server20the_session_listenerEv@MIR_SERVER_1.6.0 1.7
 _ZNK3mir6Server20the_touch_visualizerEv@MIR_SERVER_1.6.0 1.7
 _ZNK3mir6Server21the_compositor_reportEv@MIR_SERVER_1.6.0 1.7
 _ZNK3mir6Server21the_graphics_platformEv@MIR_SERVER_1.6.0 1.7
 _ZNK3mir6Server22the_session_authorizerEv@MIR_SERVER_1.6.0 1.7
 _ZNK3mir6Server23supported_pixel_formatsEv@MIR_SERVER_1.6.0 1.7
 _ZNK3mir6Server23the_session_coordinatorEv@MIR_SERVER_1.6.0 1.7
 _ZNK3mir6Server24the_shell_display_layoutEv@MIR_SERVER_1.6.0 1.7
 _ZNK3mir6Server25the_buffer_stream_factoryEv@MIR_SERVER_1.6.0 1.7
 _ZNK3mir6Server26the_composite_event_filterEv@MIR_SERVER_1.6.0 1.7
 _ZNK3mir6Server26the_prompt_session_managerEv@MIR_SERVER_1.6.0 1.7
 _ZNK3mir6Server27the_prompt_session_listenerEv@MIR_SERVER_1.6.0 1.7
 _ZNK3mir6Server27the_seat_observer_registrarEv@MIR_SERVER_1.6.0 1.7
 _ZNK3mir6Server28the_persistent_surface_storeEv@MIR_SERVER_1.6.0 1.7
 _ZNK3mir6Server36the_display_configuration_controllerEv@MIR_SERVER_1.6.0 1.7
 _ZNK3mir6Server39the_application_not_responding_detectorEv@MIR_SERVER_1.6.0 1.7
 _ZNK3mir6Server39the_session_mediator_observer_registrarEv@MIR_SERVER_1.6.0 1.7
 _ZNK3mir6Server44the_display_configuration_observer_registrarEv@MIR_SERVER_1.6.0 1.7
 _ZNK3mir6Server9the_shellEv@MIR_SERVER_1.6.0 1.7
 _ZNK3mir8frontend18SessionCredentials3gidEv@MIR_SERVER_1.6.0 1.7
 _ZNK3mir8frontend18SessionCredentials3pidEv@MIR_SERVER_1.6.0 1.7
 _ZNK3mir8frontend18SessionCredentials3uidEv@MIR_SERVER_1.6.0 1.7
 _ZTIN3mir10compositor10CompositorE@MIR_SERVER_1.6.0 1.7
 _ZTIN3mir10compositor12SceneElementE@MIR_SERVER_1.6.0 1.7
 _ZTIN3mir10compositor15DisplayListenerE@MIR_SERVER_1.6.0 1.7
 _ZTIN3mir10compositor16CompositorReportE@MIR_SERVER_1.6.0 1.7
 _ZTIN3mir10compositor23DisplayBufferCompositorE@MIR_SERVER_1.6.0 1.7
 _ZTIN3mir10compositor30DisplayBufferCompositorFactoryE@MIR_SERVER_1.6.0 1.7
 _ZTIN3mir10compositor5SceneE@MIR_SERVER_1.6.0 1.7
 _ZTIN3mir16LockableCallbackE@MIR_SERVER_1.6.0 1.7
 _ZTIN3mir17ServerActionQueueE@MIR_SERVER_1.6.0 1.7
 _ZTIN3mir20ServerStatusListenerE@MIR_SERVER_1.6.0 1.7
 _ZTIN3mir26DefaultServerConfigurationE@MIR_SERVER_DETAIL_FOR_TESTING_1.4 1.7
 _ZTIN3mir4time12AlarmFactoryE@MIR_SERVER_1.6.0 1.7
 _ZTIN3mir4time5AlarmE@MIR_SERVER_1.6.0 1.7
 _ZTIN3mir5input11EventFilterE@MIR_SERVER_1.6.0 1.7
 _ZTIN3mir5input12CursorImagesE@MIR_SERVER_1.6.0 1.7
 _ZTIN3mir5input12InputManagerE@MIR_SERVER_1.6.0 1.7
 _ZTIN3mir5input12SeatObserverE@MIR_SERVER_1.6.0 1.7
 _ZTIN3mir5input14CursorListenerE@MIR_SERVER_1.6.0 1.7
 _ZTIN3mir5input14InputDeviceHubE@MIR_SERVER_1.6.0 1.7
 _ZTIN3mir5input15InputDispatcherE@MIR_SERVER_1.6.0 1.7
 _ZTIN3mir5input15TouchVisualizerE@MIR_SERVER_1.6.0 1.7
 _ZTIN3mir5input19InputDeviceObserverE@MIR_SERVER_1.6.0 1.7
 _ZTIN3mir5input20CompositeEventFilterE@MIR_SERVER_1.6.0 1.7
 _ZTIN3mir5input6DeviceE@MIR_SERVER_1.6.0 1.7
 _ZTIN3mir5input7SurfaceE@MIR_SERVER_1.6.0 1.7
 _ZTIN3mir5scene13PromptSessionE@MIR_SERVER_1.6.0 1.7
 _ZTIN3mir5scene14SurfaceFactoryE@MIR_SERVER_1.6.0 1.7
 _ZTIN3mir5scene15SessionListenerE@MIR_SERVER_1.6.0 1.7
 _ZTIN3mir5scene15SurfaceObserverE@MIR_SERVER_1.6.0 1.7
 _ZTIN3mir5scene18SessionCoordinatorE@MIR_SERVER_1.6.0 1.7
 _ZTIN3mir5scene19BufferStreamFactoryE@MIR_SERVER_1.6.0 1.7
 (arch=mips64el ppc64 s390x)_ZTIN3mir5scene19NullSessionListenerE@MIR_SERVER_1.6.0 1.8.0+dfsg1
 _ZTIN3mir5scene19NullSurfaceObserverE@MIR_SERVER_1.6.0 1.7
 _ZTIN3mir5scene20CoordinateTranslatorE@MIR_SERVER_1.6.0 1.7
 _ZTIN3mir5scene20PromptSessionManagerE@MIR_SERVER_1.6.0 1.7
 _ZTIN3mir5scene21PromptSessionListenerE@MIR_SERVER_1.6.0 1.7
 _ZTIN3mir5scene32ApplicationNotRespondingDetector8ObserverE@MIR_SERVER_1.6.0 1.7
 _ZTIN3mir5scene32ApplicationNotRespondingDetectorE@MIR_SERVER_1.6.0 1.7
 _ZTIN3mir5scene39ApplicationNotRespondingDetectorWrapperE@MIR_SERVER_1.6.0 1.7
 _ZTIN3mir5scene7SessionE@MIR_SERVER_1.6.0 1.7
 _ZTIN3mir5scene7SurfaceE@MIR_SERVER_1.6.0 1.7
 _ZTIN3mir5scene8ObserverE@MIR_SERVER_1.6.0 1.7
 _ZTIN3mir5shell11ShellReportE@MIR_SERVER_1.6.0 1.7
 _ZTIN3mir5shell12ShellWrapperE@MIR_SERVER_1.6.0 1.7
 _ZTIN3mir5shell12SurfaceStackE@MIR_SERVER_1.6.0 1.7
 _ZTIN3mir5shell13AbstractShellE@MIR_SERVER_1.6.0 1.7
 _ZTIN3mir5shell13DisplayLayoutE@MIR_SERVER_1.6.0 1.7
 _ZTIN3mir5shell13InputTargeterE@MIR_SERVER_1.6.0 1.7
 _ZTIN3mir5shell13WindowManagerE@MIR_SERVER_1.6.0 1.7
 _ZTIN3mir5shell15FocusControllerE@MIR_SERVER_1.6.0 1.7
 _ZTIN3mir5shell19SurfaceStackWrapperE@MIR_SERVER_1.6.0 1.7
 _ZTIN3mir5shell20SurfaceReadyObserverE@MIR_SERVER_1.6.0 1.7
 _ZTIN3mir5shell20SurfaceSpecificationE@MIR_SERVER_1.6.0 1.7
 _ZTIN3mir5shell22PersistentSurfaceStoreE@MIR_SERVER_1.6.0 1.7
 _ZTIN3mir5shell26HostLifecycleEventListenerE@MIR_SERVER_1.6.0 1.7
 _ZTIN3mir5shell29SystemCompositorWindowManagerE@MIR_SERVER_1.6.0 1.7
 _ZTIN3mir5shell30DisplayConfigurationControllerE@MIR_SERVER_1.6.0 1.7
 _ZTIN3mir5shell5ShellE@MIR_SERVER_1.6.0 1.7
 _ZTIN3mir8ExecutorE@MIR_SERVER_1.6.0 1.7
 _ZTIN3mir8MainLoopE@MIR_SERVER_1.6.0 1.7
 _ZTIN3mir8frontend10BufferSinkE@MIR_SERVER_1.6.0 1.7
 _ZTIN3mir8frontend12BufferStreamE@MIR_SERVER_1.6.0 1.7
 _ZTIN3mir8frontend13PromptSessionE@MIR_SERVER_1.6.0 1.7
 _ZTIN3mir8frontend17SessionAuthorizerE@MIR_SERVER_1.6.0 1.7
 _ZTIN3mir8frontend23SessionMediatorObserverE@MIR_SERVER_1.6.0 1.7
 _ZTIN3mir8frontend7SurfaceE@MIR_SERVER_1.6.0 1.7
 _ZTIN3mir8graphics28DisplayConfigurationObserverE@MIR_SERVER_1.6.0 1.7
 _ZTIN3mir8graphics31CloneDisplayConfigurationPolicyE@MIR_SERVER_1.6.0 1.7
 _ZTIN3mir8graphics32SingleDisplayConfigurationPolicyE@MIR_SERVER_1.6.0 1.7
 _ZTIN3mir8graphics36SideBySideDisplayConfigurationPolicyE@MIR_SERVER_1.6.0 1.7
 _ZTTN3mir26DefaultServerConfigurationE@MIR_SERVER_DETAIL_FOR_TESTING_1.4 1.7
 _ZTTN3mir5shell12ShellWrapperE@MIR_SERVER_1.6.0 1.7
 _ZTVN3mir26DefaultServerConfigurationE@MIR_SERVER_DETAIL_FOR_TESTING_1.4 1.7
 (arch=mips64el ppc64 s390x)_ZTVN3mir5scene15SurfaceObserverE@MIR_SERVER_1.6.0 1.8.0+dfsg1
 (arch=mips64el ppc64 s390x)_ZTVN3mir5scene19NullSessionListenerE@MIR_SERVER_1.6.0 1.8.0+dfsg1
 _ZTVN3mir5scene19NullSurfaceObserverE@MIR_SERVER_1.6.0 1.7
 (arch=mips64el ppc64 s390x)_ZTVN3mir5scene32ApplicationNotRespondingDetector8ObserverE@MIR_SERVER_1.6.0 1.8.0+dfsg1
 _ZTVN3mir5scene39ApplicationNotRespondingDetectorWrapperE@MIR_SERVER_1.6.0 1.7
 (arch=mips64el ppc64 s390x)_ZTVN3mir5scene8ObserverE@MIR_SERVER_1.6.0 1.8.0+dfsg1
 _ZTVN3mir5shell12ShellWrapperE@MIR_SERVER_1.6.0 1.7
 _ZTVN3mir5shell13AbstractShellE@MIR_SERVER_1.6.0 1.7
 _ZTVN3mir5shell19SurfaceStackWrapperE@MIR_SERVER_1.6.0 1.7
 _ZTVN3mir5shell20SurfaceReadyObserverE@MIR_SERVER_1.6.0 1.7
 _ZTVN3mir5shell29SystemCompositorWindowManagerE@MIR_SERVER_1.6.0 1.7
 (arch=mips64el ppc64 s390x)_ZTVN3mir8ExecutorE@MIR_SERVER_1.6.0 1.8.0+dfsg1
 _ZTVN3mir8graphics31CloneDisplayConfigurationPolicyE@MIR_SERVER_1.6.0 1.7
 _ZTVN3mir8graphics32SingleDisplayConfigurationPolicyE@MIR_SERVER_1.6.0 1.7
 _ZTVN3mir8graphics36SideBySideDisplayConfigurationPolicyE@MIR_SERVER_1.6.0 1.7
 (c++)"virtual thunk to mir::shell::AbstractShell::add_display(mir::geometry::Rectangle const&)@MIR_SERVER_1.6.0" 1.7
 (c++)"virtual thunk to mir::shell::AbstractShell::add_prompt_provider_for(std::shared_ptr<mir::scene::PromptSession> const&, std::shared_ptr<mir::scene::Session> const&)@MIR_SERVER_1.6.0" 1.7
 (c++)"virtual thunk to mir::shell::AbstractShell::close_session(std::shared_ptr<mir::scene::Session> const&)@MIR_SERVER_1.6.0" 1.7
 (c++)"virtual thunk to mir::shell::AbstractShell::create_surface(std::shared_ptr<mir::scene::Session> const&, mir::scene::SurfaceCreationParameters const&, std::shared_ptr<mir::scene::SurfaceObserver> const&)@MIR_SERVER_1.6.0" 1.7
 (c++)"virtual thunk to mir::shell::AbstractShell::destroy_surface(std::shared_ptr<mir::scene::Session> const&, std::shared_ptr<mir::scene::Surface> const&)@MIR_SERVER_1.6.0" 1.7
 (c++)"virtual thunk to mir::shell::AbstractShell::focus_next_session()@MIR_SERVER_1.6.0" 1.7
 (c++)"virtual thunk to mir::shell::AbstractShell::focused_session() const@MIR_SERVER_1.6.0" 1.7
 (c++)"virtual thunk to mir::shell::AbstractShell::get_surface_attribute(std::shared_ptr<mir::scene::Surface> const&, MirWindowAttrib)@MIR_SERVER_1.6.0" 1.7
 (c++)"virtual thunk to mir::shell::AbstractShell::handle(MirEvent const&)@MIR_SERVER_1.6.0" 1.7
 (c++)"virtual thunk to mir::shell::AbstractShell::open_session(int, std::__cxx11::basic_string<char, std::char_traits<char>, std::allocator<char> > const&, std::shared_ptr<mir::frontend::EventSink> const&)@MIR_SERVER_1.6.0" 1.7
 (c++)"virtual thunk to mir::shell::AbstractShell::remove_display(mir::geometry::Rectangle const&)@MIR_SERVER_1.6.0" 1.7
 (c++)"virtual thunk to mir::shell::AbstractShell::set_focus_to(std::shared_ptr<mir::scene::Session> const&, std::shared_ptr<mir::scene::Surface> const&)@MIR_SERVER_1.6.0" 1.7
 (c++)"virtual thunk to mir::shell::AbstractShell::set_surface_attribute(std::shared_ptr<mir::scene::Session> const&, std::shared_ptr<mir::scene::Surface> const&, MirWindowAttrib, int)@MIR_SERVER_1.6.0" 1.7
 (c++)"virtual thunk to mir::shell::AbstractShell::start_prompt_session_for(std::shared_ptr<mir::scene::Session> const&, mir::scene::PromptSessionCreationParameters const&)@MIR_SERVER_1.6.0" 1.7
 (c++)"virtual thunk to mir::shell::AbstractShell::stop_prompt_session(std::shared_ptr<mir::scene::PromptSession> const&)@MIR_SERVER_1.6.0" 1.7
 (c++)"virtual thunk to mir::shell::AbstractShell::~AbstractShell()@MIR_SERVER_1.6.0" 1.7
 (c++)"virtual thunk to mir::shell::ShellWrapper::add_display(mir::geometry::Rectangle const&)@MIR_SERVER_1.6.0" 1.7
 (c++)"virtual thunk to mir::shell::ShellWrapper::handle(MirEvent const&)@MIR_SERVER_1.6.0" 1.7
 (c++)"virtual thunk to mir::shell::ShellWrapper::remove_display(mir::geometry::Rectangle const&)@MIR_SERVER_1.6.0" 1.7
